---
triple:          'arm64-apple-darwin'
binary-path:     'output/PikaCmdFuzz'
relocations:
  - { offset: 0x3B, size: 0x8, addend: 0x0, symName: _.str, symObjAddr: 0x55000, symBinAddr: 0x1000E06E0, symSize: 0x0 }
  - { offset: 0x70, size: 0x8, addend: 0x0, symName: _BUILT_IN_USAGE, symObjAddr: 0x57760, symBinAddr: 0x10011C660, symSize: 0x0 }
  - { offset: 0x86, size: 0x8, addend: 0x0, symName: _.str.1, symObjAddr: 0x555C0, symBinAddr: 0x1000E0CA0, symSize: 0x0 }
  - { offset: 0xA7, size: 0x8, addend: 0x0, symName: _BUILT_IN_DEFAULT, symObjAddr: 0x57780, symBinAddr: 0x10011C680, symSize: 0x0 }
  - { offset: 0xB8, size: 0x8, addend: 0x0, symName: _.str.2, symObjAddr: 0x55600, symBinAddr: 0x1000E0CE0, symSize: 0x0 }
  - { offset: 0xD9, size: 0x8, addend: 0x0, symName: _BUILT_IN_DIRECT, symObjAddr: 0x577A0, symBinAddr: 0x10011C6A0, symSize: 0x0 }
  - { offset: 0xEA, size: 0x8, addend: 0x0, symName: _.str.3, symObjAddr: 0x556A0, symBinAddr: 0x1000E0D80, symSize: 0x0 }
  - { offset: 0x107, size: 0x8, addend: 0x0, symName: _.str.4, symObjAddr: 0x556C0, symBinAddr: 0x1000E0DA0, symSize: 0x0 }
  - { offset: 0x124, size: 0x8, addend: 0x0, symName: _.str.5, symObjAddr: 0x556E0, symBinAddr: 0x1000E0DC0, symSize: 0x0 }
  - { offset: 0x141, size: 0x8, addend: 0x0, symName: _.str.6, symObjAddr: 0x55700, symBinAddr: 0x1000E0DE0, symSize: 0x0 }
  - { offset: 0x15E, size: 0x8, addend: 0x0, symName: _.str.7, symObjAddr: 0x55740, symBinAddr: 0x1000E0E20, symSize: 0x0 }
  - { offset: 0x17B, size: 0x8, addend: 0x0, symName: _.str.8, symObjAddr: 0x55760, symBinAddr: 0x1000E0E40, symSize: 0x0 }
  - { offset: 0x19C, size: 0x8, addend: 0x0, symName: _BUILT_IN_FILES, symObjAddr: 0x1F2D80, symBinAddr: 0x100149800, symSize: 0x0 }
  - { offset: 0xA8C2, size: 0x8, addend: 0x0, symName: __ZNSt3__124__put_character_sequenceB8ne200100IcNS_11char_traitsIcEEEERNS_13basic_ostreamIT_T0_EES7_PKS4_m, symObjAddr: 0x29CE4, symBinAddr: 0x10002F198, symSize: 0x6D4 }
  - { offset: 0xDFD2, size: 0x8, addend: 0x0, symName: __ZNSt3__1plB8ne200100IcNS_11char_traitsIcEENS_9allocatorIcEEEENS_12basic_stringIT_T0_T1_EERKS9_SB_, symObjAddr: 0x1E4C, symBinAddr: 0x100007300, symSize: 0x390 }
  - { offset: 0xE657, size: 0x8, addend: 0x0, symName: __ZNSt3__14endlB8ne200100IcNS_11char_traitsIcEEEERNS_13basic_ostreamIT_T0_EES7_, symObjAddr: 0x5F90, symBinAddr: 0x10000B444, symSize: 0x294 }
  - { offset: 0xEDA9, size: 0x8, addend: 0x0, symName: __ZNSt3__120__throw_length_errorB8ne200100EPKc, symObjAddr: 0x75D0, symBinAddr: 0x10000CA84, symSize: 0x84 }
  - { offset: 0xF1AA, size: 0x8, addend: 0x0, symName: __ZNSt3__127__tree_balance_after_insertB8ne200100IPNS_16__tree_node_baseIPvEEEEvT_S5_, symObjAddr: 0x108CC, symBinAddr: 0x100015D80, symSize: 0xAA0 }
  - { offset: 0xF53E, size: 0x8, addend: 0x0, symName: __ZNSt3__113__tree_removeB8ne200100IPNS_16__tree_node_baseIPvEEEEvT_S5_, symObjAddr: 0x11714, symBinAddr: 0x100016BC8, symSize: 0x1840 }
  - { offset: 0xFA22, size: 0x8, addend: 0x0, symName: __ZNSt3__119__allocate_at_leastB8ne200100INS_9allocatorINS_4pairIN8QStrings7QStringIcLm52EEEN4Pika8STLValueIS5_EEEEEEEENS_19__allocation_resultINS_16allocator_traitsIT_E7pointerEEERSD_m, symObjAddr: 0x13E08, symBinAddr: 0x1000192BC, symSize: 0x80 }
  - { offset: 0xFACF, size: 0x8, addend: 0x0, symName: __ZNKSt3__16vectorINS_4pairIN8QStrings7QStringIcLm52EEEN4Pika8STLValueIS4_EEEENS_9allocatorIS8_EEE17__annotate_deleteB8ne200100Ev, symObjAddr: 0x13E88, symBinAddr: 0x10001933C, symSize: 0xE0 }
  - { offset: 0xFB5C, size: 0x8, addend: 0x0, symName: __ZNSt3__134__uninitialized_allocator_relocateB8ne200100INS_9allocatorINS_4pairIN8QStrings7QStringIcLm52EEEN4Pika8STLValueIS5_EEEEEEPS9_EEvRT_T0_SE_SE_, symObjAddr: 0x13F68, symBinAddr: 0x10001941C, symSize: 0x49C }
  - { offset: 0x10172, size: 0x8, addend: 0x0, symName: __ZNSt3__118__find_first_of_ceB8ne200100IN8QStrings7QStringIcLm52EE9_iteratorIKcKS3_EES7_NS_10__equal_toEEET_S9_S9_T0_SA_OT1_, symObjAddr: 0x27E44, symBinAddr: 0x10002D2F8, symSize: 0x2F8 }
  - { offset: 0x10350, size: 0x8, addend: 0x0, symName: __ZNSt3__17getlineB8ne200100IcNS_11char_traitsIcEENS_9allocatorIcEEEERNS_13basic_istreamIT_T0_EES9_RNS_12basic_stringIS6_S7_T1_EES6_, symObjAddr: 0x2AB54, symBinAddr: 0x100030008, symSize: 0x754 }
  - { offset: 0x109D3, size: 0x8, addend: 0x0, symName: __ZNSt3__115__mismatch_loopB8ne200100IN8QStrings7QStringIcLm52EE9_iteratorIKcKS3_EES7_S7_NS_10__equal_toENS_10__identityES9_EENS_4pairIT_T1_EESB_T0_SC_RT2_RT3_RT4_, symObjAddr: 0x2DD70, symBinAddr: 0x100033224, symSize: 0x31C }
  - { offset: 0x10C05, size: 0x8, addend: 0x0, symName: __ZNSt3__19__reverseB8ne200100INS_17_ClassicAlgPolicyEN8QStrings7QStringIcLm52EE9_iteratorIcS4_EES6_EEvT0_T1_, symObjAddr: 0x4BE98, symBinAddr: 0x10005134C, symSize: 0x118 }
  - { offset: 0x10CE7, size: 0x8, addend: 0x0, symName: __ZNSt3__18_IterOpsINS_17_ClassicAlgPolicyEE9iter_swapB8ne200100IRN8QStrings7QStringIcLm52EE9_iteratorIcS6_EES9_EEvOT_OT0_, symObjAddr: 0x4BFB0, symBinAddr: 0x100051464, symSize: 0x204 }
  - { offset: 0x10F70, size: 0x8, addend: 0x0, symName: __ZNSt3__113__search_implB8ne200100IN8QStrings7QStringIcLm52EE9_iteratorIKcKS3_EES7_S7_S7_NS_10__equal_toENS_10__identityES9_TnNS_9enable_ifIXaasr37__has_random_access_iterator_categoryIT_EE5valuesr37__has_random_access_iterator_categoryIT1_EE5valueEiE4typeELi0EEENS_4pairISB_SB_EESB_T0_SC_T2_RT3_RT4_RT5_, symObjAddr: 0x4CB8C, symBinAddr: 0x100052040, symSize: 0x280 }
  - { offset: 0x111E9, size: 0x8, addend: 0x0, symName: __ZNSt3__16__findB8ne200100IN8QStrings7QStringIcLm52EE9_iteratorIKcKS3_EES7_cNS_10__identityEEET_S9_T0_RKT1_RT2_, symObjAddr: 0x1F38C, symBinAddr: 0x100024840, symSize: 0x20C }
  - { offset: 0x114DA, size: 0x8, addend: 0x0, symName: __ZNSt3__116__pad_and_outputB8ne200100IcNS_11char_traitsIcEEEENS_19ostreambuf_iteratorIT_T0_EES6_PKS4_S8_S8_RNS_8ios_baseES4_, symObjAddr: 0x2A3B8, symBinAddr: 0x10002F86C, symSize: 0x5B8 }
  - { offset: 0x1196A, size: 0x8, addend: 0x0, symName: __ZNSt3__119__allocate_at_leastB8ne200100INS_9allocatorIN4Pika8STLValueIN8QStrings7QStringIcLm52EEEEEEEEENS_19__allocation_resultINS_16allocator_traitsIT_E7pointerEEERSB_m, symObjAddr: 0x2C680, symBinAddr: 0x100031B34, symSize: 0x80 }
  - { offset: 0x11A17, size: 0x8, addend: 0x0, symName: __ZNKSt3__16vectorIN4Pika8STLValueIN8QStrings7QStringIcLm52EEEEENS_9allocatorIS6_EEE14__annotate_newB8ne200100Em, symObjAddr: 0x2C700, symBinAddr: 0x100031BB4, symSize: 0xCC }
  - { offset: 0x11CC0, size: 0x8, addend: 0x0, symName: __ZNSt3__118__find_first_of_ceB8ne200100IN8QStrings7QStringIcLm52EE9_iteratorIKcKS3_EEPS5_NS_10__equal_toEEET_SA_SA_T0_SB_OT1_, symObjAddr: 0x3A3E8, symBinAddr: 0x10003F89C, symSize: 0x264 }
  - { offset: 0x11D96, size: 0x8, addend: 0x0, symName: __ZNSt3__113__search_implB8ne200100IN8QStrings7QStringIcLm52EE9_iteratorIKcKS3_EES7_PS5_S8_NS_10__equal_toENS_10__identityESA_TnNS_9enable_ifIXaasr37__has_random_access_iterator_categoryIT_EE5valuesr37__has_random_access_iterator_categoryIT1_EE5valueEiE4typeELi0EEENS_4pairISC_SC_EESC_T0_SD_T2_RT3_RT4_RT5_, symObjAddr: 0x3A64C, symBinAddr: 0x10003FB00, symSize: 0x234 }
  - { offset: 0x11DC3, size: 0x8, addend: 0x0, symName: __ZNSt3__113__search_implB8ne200100IN8QStrings7QStringIcLm52EE9_iteratorIKcKS3_EES7_PS5_S8_NS_10__equal_toENS_10__identityESA_TnNS_9enable_ifIXaasr37__has_random_access_iterator_categoryIT_EE5valuesr37__has_random_access_iterator_categoryIT1_EE5valueEiE4typeELi0EEENS_4pairISC_SC_EESC_T0_SD_T2_RT3_RT4_RT5_, symObjAddr: 0x3A64C, symBinAddr: 0x10003FB00, symSize: 0x234 }
  - { offset: 0x12347, size: 0x8, addend: 0x0, symName: __ZNSt3__127__search_random_access_implB8ne200100INS_17_ClassicAlgPolicyEN8QStrings7QStringIcLm52EE9_iteratorIKcKS4_EES8_PS6_S9_NS_10__equal_toENS_10__identityESB_llEENS_4pairIT0_SD_EESD_T1_T2_T3_RT4_RT5_RT6_T7_T8_, symObjAddr: 0x3A880, symBinAddr: 0x10003FD34, symSize: 0x3FC }
  - { offset: 0x1275C, size: 0x8, addend: 0x0, symName: __ZNSt3__127__search_random_access_implB8ne200100INS_17_ClassicAlgPolicyEN8QStrings7QStringIcLm52EE9_iteratorIKcKS4_EES8_S8_S8_NS_10__equal_toENS_10__identityESA_llEENS_4pairIT0_SC_EESC_T1_T2_T3_RT4_RT5_RT6_T7_T8_, symObjAddr: 0x4CE0C, symBinAddr: 0x1000522C0, symSize: 0x4E8 }
  - { offset: 0x139DD, size: 0x8, addend: 0x0, symName: __ZSt28__throw_bad_array_new_lengthB8ne200100v, symObjAddr: 0x76B0, symBinAddr: 0x10000CB64, symSize: 0x38 }
  - { offset: 0x14B51, size: 0x8, addend: 0x0, symName: _pikaCmdDir, symObjAddr: 0x1F2EE0, symBinAddr: 0x100149960, symSize: 0x0 }
  - { offset: 0x14B62, size: 0x8, addend: 0x0, symName: _.str.10, symObjAddr: 0x55780, symBinAddr: 0x1000E0E60, symSize: 0x0 }
  - { offset: 0x14B7F, size: 0x8, addend: 0x0, symName: _.str.11, symObjAddr: 0x557C0, symBinAddr: 0x1000E0EA0, symSize: 0x0 }
  - { offset: 0x14B9C, size: 0x8, addend: 0x0, symName: _.str.12, symObjAddr: 0x557E0, symBinAddr: 0x1000E0EC0, symSize: 0x0 }
  - { offset: 0x14BB9, size: 0x8, addend: 0x0, symName: _.str.13, symObjAddr: 0x55800, symBinAddr: 0x1000E0EE0, symSize: 0x0 }
  - { offset: 0x14BD6, size: 0x8, addend: 0x0, symName: _.str.14, symObjAddr: 0x55820, symBinAddr: 0x1000E0F00, symSize: 0x0 }
  - { offset: 0x14BE7, size: 0x8, addend: 0x0, symName: _.str.15, symObjAddr: 0x55840, symBinAddr: 0x1000E0F20, symSize: 0x0 }
  - { offset: 0x14BF8, size: 0x8, addend: 0x0, symName: _.str.16, symObjAddr: 0x55860, symBinAddr: 0x1000E0F40, symSize: 0x0 }
  - { offset: 0x14C09, size: 0x8, addend: 0x0, symName: _.str.17, symObjAddr: 0x55880, symBinAddr: 0x1000E0F60, symSize: 0x0 }
  - { offset: 0x14C1A, size: 0x8, addend: 0x0, symName: _.str.18, symObjAddr: 0x558A0, symBinAddr: 0x1000E0F80, symSize: 0x0 }
  - { offset: 0x14C37, size: 0x8, addend: 0x0, symName: _.str.19, symObjAddr: 0x558C0, symBinAddr: 0x1000E0FA0, symSize: 0x0 }
  - { offset: 0x14C48, size: 0x8, addend: 0x0, symName: _.str.20, symObjAddr: 0x558E0, symBinAddr: 0x1000E0FC0, symSize: 0x0 }
  - { offset: 0x14C59, size: 0x8, addend: 0x0, symName: _.str.21, symObjAddr: 0x55900, symBinAddr: 0x1000E0FE0, symSize: 0x0 }
  - { offset: 0x14C76, size: 0x8, addend: 0x0, symName: _.str.22, symObjAddr: 0x55940, symBinAddr: 0x1000E1020, symSize: 0x0 }
  - { offset: 0x14C87, size: 0x8, addend: 0x0, symName: _.str.23, symObjAddr: 0x55960, symBinAddr: 0x1000E1040, symSize: 0x0 }
  - { offset: 0x14C91, size: 0x8, addend: 0x0, symName: __ZN8QStrings7QStringIcLm52EE17obtainDummyBufferEv, symObjAddr: 0x6F58, symBinAddr: 0x10000C40C, symSize: 0xDC }
  - { offset: 0x14CB1, size: 0x8, addend: 0x0, symName: __ZZN8QStrings7QStringIcLm52EE17obtainDummyBufferEvE5dummy, symObjAddr: 0x577C0, symBinAddr: 0x10011C6C0, symSize: 0x0 }
  - { offset: 0x14D0E, size: 0x8, addend: 0x0, symName: __ZN4Pika6escapeINSt3__112basic_stringIcNS1_11char_traitsIcEENS1_9allocatorIcEEEEEET_RKS8_, symObjAddr: 0x6224, symBinAddr: 0x10000B6D8, symSize: 0xD34 }
  - { offset: 0x14D37, size: 0x8, addend: 0x0, symName: __ZZN4Pika6escapeINSt3__112basic_stringIcNS1_11char_traitsIcEENS1_9allocatorIcEEEEEET_RKS8_E12ESCAPE_CHARS, symObjAddr: 0x54593, symBinAddr: 0x1000DEF23, symSize: 0x0 }
  - { offset: 0x14D57, size: 0x8, addend: 0x0, symName: __ZZN4Pika6escapeINSt3__112basic_stringIcNS1_11char_traitsIcEENS1_9allocatorIcEEEEEET_RKS8_E12ESCAPE_CODES, symObjAddr: 0x5459D, symBinAddr: 0x1000DEF2D, symSize: 0x0 }
  - { offset: 0x19167, size: 0x8, addend: 0x0, symName: __ZN4Pika8unescapeIN8QStrings7QStringIcLm52EEEEET_RNS4_14const_iteratorERKS5_, symObjAddr: 0x489D4, symBinAddr: 0x10004DE88, symSize: 0x1928 }
  - { offset: 0x19190, size: 0x8, addend: 0x0, symName: __ZZN4Pika8unescapeIN8QStrings7QStringIcLm52EEEEET_RNS4_14const_iteratorERKS5_E12ESCAPE_CHARS, symObjAddr: 0x54CC8, symBinAddr: 0x1000DF658, symSize: 0x0 }
  - { offset: 0x191B0, size: 0x8, addend: 0x0, symName: __ZZN4Pika8unescapeIN8QStrings7QStringIcLm52EEEEET_RNS4_14const_iteratorERKS5_E12ESCAPE_CODES, symObjAddr: 0x54CD2, symBinAddr: 0x1000DF662, symSize: 0x0 }
  - { offset: 0x19F22, size: 0x8, addend: 0x0, symName: __ZN4Pika6escapeIN8QStrings7QStringIcLm52EEEEET_RKS4_, symObjAddr: 0x2318, symBinAddr: 0x1000077CC, symSize: 0xD0C }
  - { offset: 0x19F4B, size: 0x8, addend: 0x0, symName: __ZZN4Pika6escapeIN8QStrings7QStringIcLm52EEEEET_RKS4_E12ESCAPE_CHARS, symObjAddr: 0x54F51, symBinAddr: 0x1000DF8E1, symSize: 0x0 }
  - { offset: 0x19F6B, size: 0x8, addend: 0x0, symName: __ZZN4Pika6escapeIN8QStrings7QStringIcLm52EEEEET_RKS4_E12ESCAPE_CODES, symObjAddr: 0x54F5B, symBinAddr: 0x1000DF8EB, symSize: 0x0 }
  - { offset: 0x1A877, size: 0x8, addend: 0x0, symName: __ZN4Pika11intToStringIN8QStrings7QStringIcLm52EEEhEET_T0_ii, symObjAddr: 0x4F4EC, symBinAddr: 0x1000549A0, symSize: 0x350 }
  - { offset: 0x1A9D9, size: 0x8, addend: 0x0, symName: __ZN4Pika11intToStringINSt3__112basic_stringIcNS1_11char_traitsIcEENS1_9allocatorIcEEEEhEET_T0_ii, symObjAddr: 0x70D4, symBinAddr: 0x10000C588, symSize: 0x34C }
  - { offset: 0x1AAF3, size: 0x8, addend: 0x0, symName: __ZN4Pika14doubleToStringIN8QStrings7QStringIcLm52EEEEET_di, symObjAddr: 0x22DC4, symBinAddr: 0x100028278, symSize: 0xE30 }
  - { offset: 0x1B065, size: 0x8, addend: 0x0, symName: __ZN4Pika11intToStringIN8QStrings7QStringIcLm52EEEmEET_T0_ii, symObjAddr: 0x27ACC, symBinAddr: 0x10002CF80, symSize: 0x378 }
  - { offset: 0x1B1A1, size: 0x8, addend: 0x0, symName: __ZN4Pika11intToStringIN8QStrings7QStringIcLm52EEEiEET_T0_ii, symObjAddr: 0x23FA0, symBinAddr: 0x100029454, symSize: 0x398 }
  - { offset: 0x1B2D4, size: 0x8, addend: 0x0, symName: __ZN4Pika14stringToDoubleINS_8STLValueIN8QStrings7QStringIcLm52EEEEEEEbRKT_Rd, symObjAddr: 0x21494, symBinAddr: 0x100026948, symSize: 0x138 }
  - { offset: 0x1B3DB, size: 0x8, addend: 0x0, symName: __ZN4Pika14stringToDoubleINS_8STLValueIN8QStrings7QStringIcLm52EEEEEEEdRNT_14const_iteratorERKS7_, symObjAddr: 0x215CC, symBinAddr: 0x100026A80, symSize: 0xE80 }
  - { offset: 0x1B932, size: 0x8, addend: 0x0, symName: __ZN4Pika12stringToLongINS_8STLValueIN8QStrings7QStringIcLm52EEEEEEElRNT_14const_iteratorERKS7_, symObjAddr: 0x22550, symBinAddr: 0x100027A04, symSize: 0x674 }
  - { offset: 0x1BB50, size: 0x8, addend: 0x0, symName: __ZN4Pika11intToStringIN8QStrings7QStringIcLm52EEElEET_T0_ii, symObjAddr: 0x23BF4, symBinAddr: 0x1000290A8, symSize: 0x3AC }
  - { offset: 0x1BCE1, size: 0x8, addend: 0x0, symName: __ZN4Pika12stringToLongIN8QStrings7QStringIcLm52EEEEElRNT_14const_iteratorERKS5_, symObjAddr: 0x2BB80, symBinAddr: 0x100031034, symSize: 0x674 }
  - { offset: 0x1BF4A, size: 0x8, addend: 0x0, symName: __ZN4Pika9hexToLongIN8QStrings7QStringIcLm52EEEEEmRNT_14const_iteratorERKS5_, symObjAddr: 0x4A2FC, symBinAddr: 0x10004F7B0, symSize: 0x5B0 }
  - { offset: 0x1C0E5, size: 0x8, addend: 0x0, symName: __ZN4Pika14stringToDoubleIN8QStrings7QStringIcLm52EEEEEdRNT_14const_iteratorERKS5_, symObjAddr: 0x4A8AC, symBinAddr: 0x10004FD60, symSize: 0xE80 }
  - { offset: 0x1C69D, size: 0x8, addend: 0x0, symName: __ZN4Pika6moduloEdd, symObjAddr: 0x3E32C, symBinAddr: 0x1000437E0, symSize: 0x14 }
  - { offset: 0x1C6DA, size: 0x8, addend: 0x0, symName: __ZN4Pika6bitXorEmm, symObjAddr: 0x3EB70, symBinAddr: 0x100044024, symSize: 0x18 }
  - { offset: 0x1C716, size: 0x8, addend: 0x0, symName: __ZN4Pika9shiftLeftEmi, symObjAddr: 0x3EF80, symBinAddr: 0x100044434, symSize: 0x18 }
  - { offset: 0x1C752, size: 0x8, addend: 0x0, symName: __ZN4Pika10shiftRightEmi, symObjAddr: 0x3F390, symBinAddr: 0x100044844, symSize: 0x18 }
  - { offset: 0x1C78E, size: 0x8, addend: 0x0, symName: __ZN4Pika6bitAndEmm, symObjAddr: 0x411E8, symBinAddr: 0x10004669C, symSize: 0x18 }
  - { offset: 0x1C7CA, size: 0x8, addend: 0x0, symName: __ZN4Pika5bitOrEmm, symObjAddr: 0x41200, symBinAddr: 0x1000466B4, symSize: 0x18 }
  - { offset: 0x1C832, size: 0x8, addend: 0x0, symName: _.str.24, symObjAddr: 0x559A0, symBinAddr: 0x1000E1080, symSize: 0x0 }
  - { offset: 0x1C84F, size: 0x8, addend: 0x0, symName: _.str.25, symObjAddr: 0x559C0, symBinAddr: 0x1000E10A0, symSize: 0x0 }
  - { offset: 0x1C865, size: 0x8, addend: 0x0, symName: _.str.26, symObjAddr: 0x559E0, symBinAddr: 0x1000E10C0, symSize: 0x0 }
  - { offset: 0x1C878, size: 0x8, addend: 0x0, symName: _.str.29, symObjAddr: 0x55A00, symBinAddr: 0x1000E10E0, symSize: 0x0 }
  - { offset: 0x1C88E, size: 0x8, addend: 0x0, symName: ___func__._ZN4Pika11intToStringINSt3__112basic_stringIcNS1_11char_traitsIcEENS1_9allocatorIcEEEEhEET_T0_ii, symObjAddr: 0x55A20, symBinAddr: 0x1000E1100, symSize: 0x0 }
  - { offset: 0x1C89F, size: 0x8, addend: 0x0, symName: _.str.30, symObjAddr: 0x55A40, symBinAddr: 0x1000E1120, symSize: 0x0 }
  - { offset: 0x1C8B0, size: 0x8, addend: 0x0, symName: _.str.31, symObjAddr: 0x55A80, symBinAddr: 0x1000E1160, symSize: 0x0 }
  - { offset: 0x1C8C1, size: 0x8, addend: 0x0, symName: _.str.32, symObjAddr: 0x55AC0, symBinAddr: 0x1000E11A0, symSize: 0x0 }
  - { offset: 0x1C8DE, size: 0x8, addend: 0x0, symName: _.str.33, symObjAddr: 0x55B20, symBinAddr: 0x1000E1200, symSize: 0x0 }
  - { offset: 0x1C8FB, size: 0x8, addend: 0x0, symName: _.str.34, symObjAddr: 0x55B40, symBinAddr: 0x1000E1220, symSize: 0x0 }
  - { offset: 0x1C91A, size: 0x8, addend: 0x0, symName: ___func__._ZN8QStrings7QStringIcLm52EEC2EPKcmm, symObjAddr: 0x55B80, symBinAddr: 0x1000E1260, symSize: 0x0 }
  - { offset: 0x1C939, size: 0x8, addend: 0x0, symName: _.str.35, symObjAddr: 0x55BA0, symBinAddr: 0x1000E1280, symSize: 0x0 }
  - { offset: 0x1C94C, size: 0x8, addend: 0x0, symName: _.str.36, symObjAddr: 0x55BC0, symBinAddr: 0x1000E12A0, symSize: 0x0 }
  - { offset: 0x1C95D, size: 0x8, addend: 0x0, symName: ___func__._ZN8QStrings7QStringIcLm52EE9newBufferEmPKcm, symObjAddr: 0x55BE0, symBinAddr: 0x1000E12C0, symSize: 0x0 }
  - { offset: 0x1C96E, size: 0x8, addend: 0x0, symName: _.str.37, symObjAddr: 0x55C00, symBinAddr: 0x1000E12E0, symSize: 0x0 }
  - { offset: 0x1C98B, size: 0x8, addend: 0x0, symName: ___func__._ZN8QStrings7QStringIcLm52EE7releaseEv, symObjAddr: 0x55C40, symBinAddr: 0x1000E1320, symSize: 0x0 }
  - { offset: 0x1C99C, size: 0x8, addend: 0x0, symName: _.str.39, symObjAddr: 0x55C60, symBinAddr: 0x1000E1340, symSize: 0x0 }
  - { offset: 0x1C9AF, size: 0x8, addend: 0x0, symName: _.str.40, symObjAddr: 0x55C80, symBinAddr: 0x1000E1360, symSize: 0x0 }
  - { offset: 0x1C9C2, size: 0x8, addend: 0x0, symName: _.str.41, symObjAddr: 0x55CA0, symBinAddr: 0x1000E1380, symSize: 0x0 }
  - { offset: 0x1C9E1, size: 0x8, addend: 0x0, symName: _.str.42, symObjAddr: 0x55D20, symBinAddr: 0x1000E1400, symSize: 0x0 }
  - { offset: 0x1C9F4, size: 0x8, addend: 0x0, symName: _.str.43, symObjAddr: 0x55D40, symBinAddr: 0x1000E1420, symSize: 0x0 }
  - { offset: 0x1CA07, size: 0x8, addend: 0x0, symName: _.str.44, symObjAddr: 0x55D60, symBinAddr: 0x1000E1440, symSize: 0x0 }
  - { offset: 0x1CA1A, size: 0x8, addend: 0x0, symName: _.str.45, symObjAddr: 0x55D80, symBinAddr: 0x1000E1460, symSize: 0x0 }
  - { offset: 0x1CA39, size: 0x8, addend: 0x0, symName: _.str.46, symObjAddr: 0x55DA0, symBinAddr: 0x1000E1480, symSize: 0x0 }
  - { offset: 0x1CA58, size: 0x8, addend: 0x0, symName: _.str.47, symObjAddr: 0x55E20, symBinAddr: 0x1000E1500, symSize: 0x0 }
  - { offset: 0x1CA6B, size: 0x8, addend: 0x0, symName: _.str.48, symObjAddr: 0x55E40, symBinAddr: 0x1000E1520, symSize: 0x0 }
  - { offset: 0x1CA7E, size: 0x8, addend: 0x0, symName: _.str.49, symObjAddr: 0x55E60, symBinAddr: 0x1000E1540, symSize: 0x0 }
  - { offset: 0x1CA91, size: 0x8, addend: 0x0, symName: _.str.50, symObjAddr: 0x55E80, symBinAddr: 0x1000E1560, symSize: 0x0 }
  - { offset: 0x1CAA4, size: 0x8, addend: 0x0, symName: _.str.51, symObjAddr: 0x55EA0, symBinAddr: 0x1000E1580, symSize: 0x0 }
  - { offset: 0x1CAB7, size: 0x8, addend: 0x0, symName: _.str.52, symObjAddr: 0x55EC0, symBinAddr: 0x1000E15A0, symSize: 0x0 }
  - { offset: 0x1CACA, size: 0x8, addend: 0x0, symName: _.str.53, symObjAddr: 0x55EE0, symBinAddr: 0x1000E15C0, symSize: 0x0 }
  - { offset: 0x1CADD, size: 0x8, addend: 0x0, symName: _.str.54, symObjAddr: 0x55F00, symBinAddr: 0x1000E15E0, symSize: 0x0 }
  - { offset: 0x1CAF0, size: 0x8, addend: 0x0, symName: _.str.55, symObjAddr: 0x55F20, symBinAddr: 0x1000E1600, symSize: 0x0 }
  - { offset: 0x1CB03, size: 0x8, addend: 0x0, symName: _.str.56, symObjAddr: 0x55F40, symBinAddr: 0x1000E1620, symSize: 0x0 }
  - { offset: 0x1CB16, size: 0x8, addend: 0x0, symName: _.str.57, symObjAddr: 0x55F60, symBinAddr: 0x1000E1640, symSize: 0x0 }
  - { offset: 0x1CB29, size: 0x8, addend: 0x0, symName: _.str.58, symObjAddr: 0x55F80, symBinAddr: 0x1000E1660, symSize: 0x0 }
  - { offset: 0x1CB3C, size: 0x8, addend: 0x0, symName: _.str.59, symObjAddr: 0x55FA0, symBinAddr: 0x1000E1680, symSize: 0x0 }
  - { offset: 0x1CB4F, size: 0x8, addend: 0x0, symName: _.str.60, symObjAddr: 0x55FC0, symBinAddr: 0x1000E16A0, symSize: 0x0 }
  - { offset: 0x1CB62, size: 0x8, addend: 0x0, symName: _.str.61, symObjAddr: 0x55FE0, symBinAddr: 0x1000E16C0, symSize: 0x0 }
  - { offset: 0x1CB75, size: 0x8, addend: 0x0, symName: _.str.62, symObjAddr: 0x56000, symBinAddr: 0x1000E16E0, symSize: 0x0 }
  - { offset: 0x1CB88, size: 0x8, addend: 0x0, symName: _.str.63, symObjAddr: 0x56020, symBinAddr: 0x1000E1700, symSize: 0x0 }
  - { offset: 0x1CB9B, size: 0x8, addend: 0x0, symName: _.str.64, symObjAddr: 0x56040, symBinAddr: 0x1000E1720, symSize: 0x0 }
  - { offset: 0x1CBAE, size: 0x8, addend: 0x0, symName: _.str.65, symObjAddr: 0x56060, symBinAddr: 0x1000E1740, symSize: 0x0 }
  - { offset: 0x1CBC1, size: 0x8, addend: 0x0, symName: _.str.66, symObjAddr: 0x56080, symBinAddr: 0x1000E1760, symSize: 0x0 }
  - { offset: 0x1CBE0, size: 0x8, addend: 0x0, symName: _.str.67, symObjAddr: 0x56100, symBinAddr: 0x1000E17E0, symSize: 0x0 }
  - { offset: 0x1CBF3, size: 0x8, addend: 0x0, symName: _.str.68, symObjAddr: 0x56120, symBinAddr: 0x1000E1800, symSize: 0x0 }
  - { offset: 0x1CC06, size: 0x8, addend: 0x0, symName: _.str.69, symObjAddr: 0x56140, symBinAddr: 0x1000E1820, symSize: 0x0 }
  - { offset: 0x1CC19, size: 0x8, addend: 0x0, symName: _.str.70, symObjAddr: 0x56160, symBinAddr: 0x1000E1840, symSize: 0x0 }
  - { offset: 0x1CC2C, size: 0x8, addend: 0x0, symName: _.str.71, symObjAddr: 0x56180, symBinAddr: 0x1000E1860, symSize: 0x0 }
  - { offset: 0x1CC3F, size: 0x8, addend: 0x0, symName: _.str.72, symObjAddr: 0x561A0, symBinAddr: 0x1000E1880, symSize: 0x0 }
  - { offset: 0x1CC52, size: 0x8, addend: 0x0, symName: _.str.73, symObjAddr: 0x561C0, symBinAddr: 0x1000E18A0, symSize: 0x0 }
  - { offset: 0x1CC65, size: 0x8, addend: 0x0, symName: _.str.74, symObjAddr: 0x561E0, symBinAddr: 0x1000E18C0, symSize: 0x0 }
  - { offset: 0x1CC78, size: 0x8, addend: 0x0, symName: _.str.75, symObjAddr: 0x56200, symBinAddr: 0x1000E18E0, symSize: 0x0 }
  - { offset: 0x1CC8B, size: 0x8, addend: 0x0, symName: _.str.76, symObjAddr: 0x56220, symBinAddr: 0x1000E1900, symSize: 0x0 }
  - { offset: 0x1CC9E, size: 0x8, addend: 0x0, symName: _.str.77, symObjAddr: 0x56240, symBinAddr: 0x1000E1920, symSize: 0x0 }
  - { offset: 0x1CCB1, size: 0x8, addend: 0x0, symName: _.str.78, symObjAddr: 0x56260, symBinAddr: 0x1000E1940, symSize: 0x0 }
  - { offset: 0x1CCC4, size: 0x8, addend: 0x0, symName: _.str.79, symObjAddr: 0x56280, symBinAddr: 0x1000E1960, symSize: 0x0 }
  - { offset: 0x1CCD7, size: 0x8, addend: 0x0, symName: _.str.80, symObjAddr: 0x562A0, symBinAddr: 0x1000E1980, symSize: 0x0 }
  - { offset: 0x1CCEA, size: 0x8, addend: 0x0, symName: _.str.81, symObjAddr: 0x562C0, symBinAddr: 0x1000E19A0, symSize: 0x0 }
  - { offset: 0x1CCFD, size: 0x8, addend: 0x0, symName: _.str.82, symObjAddr: 0x562E0, symBinAddr: 0x1000E19C0, symSize: 0x0 }
  - { offset: 0x1CD10, size: 0x8, addend: 0x0, symName: _.str.83, symObjAddr: 0x56300, symBinAddr: 0x1000E19E0, symSize: 0x0 }
  - { offset: 0x1CD23, size: 0x8, addend: 0x0, symName: _.str.84, symObjAddr: 0x56320, symBinAddr: 0x1000E1A00, symSize: 0x0 }
  - { offset: 0x1CD36, size: 0x8, addend: 0x0, symName: _.str.85, symObjAddr: 0x56340, symBinAddr: 0x1000E1A20, symSize: 0x0 }
  - { offset: 0x1CD49, size: 0x8, addend: 0x0, symName: _.str.86, symObjAddr: 0x56360, symBinAddr: 0x1000E1A40, symSize: 0x0 }
  - { offset: 0x1CD5C, size: 0x8, addend: 0x0, symName: _.str.87, symObjAddr: 0x56380, symBinAddr: 0x1000E1A60, symSize: 0x0 }
  - { offset: 0x1CD6F, size: 0x8, addend: 0x0, symName: _.str.88, symObjAddr: 0x563A0, symBinAddr: 0x1000E1A80, symSize: 0x0 }
  - { offset: 0x1CD82, size: 0x8, addend: 0x0, symName: _.str.89, symObjAddr: 0x563C0, symBinAddr: 0x1000E1AA0, symSize: 0x0 }
  - { offset: 0x1CD95, size: 0x8, addend: 0x0, symName: _.str.90, symObjAddr: 0x563E0, symBinAddr: 0x1000E1AC0, symSize: 0x0 }
  - { offset: 0x1CDA8, size: 0x8, addend: 0x0, symName: _.str.91, symObjAddr: 0x56400, symBinAddr: 0x1000E1AE0, symSize: 0x0 }
  - { offset: 0x1CDBB, size: 0x8, addend: 0x0, symName: _.str.92, symObjAddr: 0x56420, symBinAddr: 0x1000E1B00, symSize: 0x0 }
  - { offset: 0x1CDCE, size: 0x8, addend: 0x0, symName: _.str.93, symObjAddr: 0x56440, symBinAddr: 0x1000E1B20, symSize: 0x0 }
  - { offset: 0x1CDE1, size: 0x8, addend: 0x0, symName: ___func__._ZNK8QStrings7QStringIcLm52EEixEm, symObjAddr: 0x56460, symBinAddr: 0x1000E1B40, symSize: 0x0 }
  - { offset: 0x1CDF4, size: 0x8, addend: 0x0, symName: _.str.94, symObjAddr: 0x56480, symBinAddr: 0x1000E1B60, symSize: 0x0 }
  - { offset: 0x1CE13, size: 0x8, addend: 0x0, symName: ___func__._ZNK4Pika6ScriptI19QuickerScriptConfigE5Frame12resolveFrameERN8QStrings7QStringIcLm52EE9_iteratorIKcKS6_EERKSA_, symObjAddr: 0x56500, symBinAddr: 0x1000E1BE0, symSize: 0x0 }
  - { offset: 0x1CE26, size: 0x8, addend: 0x0, symName: _.str.95, symObjAddr: 0x56520, symBinAddr: 0x1000E1C00, symSize: 0x0 }
  - { offset: 0x1CE39, size: 0x8, addend: 0x0, symName: _.str.96, symObjAddr: 0x56540, symBinAddr: 0x1000E1C20, symSize: 0x0 }
  - { offset: 0x1CE58, size: 0x8, addend: 0x0, symName: _.str.97, symObjAddr: 0x56580, symBinAddr: 0x1000E1C60, symSize: 0x0 }
  - { offset: 0x1CE77, size: 0x8, addend: 0x0, symName: _.str.98, symObjAddr: 0x565C0, symBinAddr: 0x1000E1CA0, symSize: 0x0 }
  - { offset: 0x1CE88, size: 0x8, addend: 0x0, symName: ___func__._ZNK8QStrings7QStringIcLm52EE9_iteratorIKcKS1_EleIS3_S4_EEbRKNS2_IT_T0_EE, symObjAddr: 0x56600, symBinAddr: 0x1000E1CE0, symSize: 0x0 }
  - { offset: 0x1CE99, size: 0x8, addend: 0x0, symName: _.str.99, symObjAddr: 0x56620, symBinAddr: 0x1000E1D00, symSize: 0x0 }
  - { offset: 0x1CEAA, size: 0x8, addend: 0x0, symName: ___func__._ZNK8QStrings7QStringIcLm52EE9_iteratorIKcKS1_EltIS3_S4_EEbRKNS2_IT_T0_EE, symObjAddr: 0x56640, symBinAddr: 0x1000E1D20, symSize: 0x0 }
  - { offset: 0x1CEBB, size: 0x8, addend: 0x0, symName: ___func__._ZNK8QStrings7QStringIcLm52EE9_iteratorIKcKS1_EdeEv, symObjAddr: 0x56660, symBinAddr: 0x1000E1D40, symSize: 0x0 }
  - { offset: 0x1CECC, size: 0x8, addend: 0x0, symName: _.str.100, symObjAddr: 0x56680, symBinAddr: 0x1000E1D60, symSize: 0x0 }
  - { offset: 0x1CEE9, size: 0x8, addend: 0x0, symName: ___func__._ZNK8QStrings7QStringIcLm52EE9_iteratorIKcKS1_EgeIS3_S4_EEbRKNS2_IT_T0_EE, symObjAddr: 0x566E0, symBinAddr: 0x1000E1DC0, symSize: 0x0 }
  - { offset: 0x1CEFA, size: 0x8, addend: 0x0, symName: ___func__._ZN8QStringsmiERKNS_7QStringIcLm52EE9_iteratorIKcKS1_EES7_, symObjAddr: 0x56700, symBinAddr: 0x1000E1DE0, symSize: 0x0 }
  - { offset: 0x1CF0B, size: 0x8, addend: 0x0, symName: _.str.101, symObjAddr: 0x56720, symBinAddr: 0x1000E1E00, symSize: 0x0 }
  - { offset: 0x1CF1E, size: 0x8, addend: 0x0, symName: _.str.102, symObjAddr: 0x56740, symBinAddr: 0x1000E1E20, symSize: 0x0 }
  - { offset: 0x1CF3D, size: 0x8, addend: 0x0, symName: _.str.103, symObjAddr: 0x567A0, symBinAddr: 0x1000E1E80, symSize: 0x0 }
  - { offset: 0x1CF50, size: 0x8, addend: 0x0, symName: _.str.104, symObjAddr: 0x567E0, symBinAddr: 0x1000E1EC0, symSize: 0x0 }
  - { offset: 0x1CF63, size: 0x8, addend: 0x0, symName: _.str.105, symObjAddr: 0x56820, symBinAddr: 0x1000E1F00, symSize: 0x0 }
  - { offset: 0x1CF76, size: 0x8, addend: 0x0, symName: ___func__._ZNK8QStrings7QStringIcLm52EE6concatEPKcm, symObjAddr: 0x56840, symBinAddr: 0x1000E1F20, symSize: 0x0 }
  - { offset: 0x1CF89, size: 0x8, addend: 0x0, symName: _.str.106, symObjAddr: 0x56860, symBinAddr: 0x1000E1F40, symSize: 0x0 }
  - { offset: 0x1CF9C, size: 0x8, addend: 0x0, symName: _.str.107, symObjAddr: 0x56880, symBinAddr: 0x1000E1F60, symSize: 0x0 }
  - { offset: 0x1CFAF, size: 0x8, addend: 0x0, symName: ___func__._ZN8QStrings7QStringIcLm52EE6appendEPKcm, symObjAddr: 0x568C0, symBinAddr: 0x1000E1FA0, symSize: 0x0 }
  - { offset: 0x1CFC2, size: 0x8, addend: 0x0, symName: _.str.108, symObjAddr: 0x568E0, symBinAddr: 0x1000E1FC0, symSize: 0x0 }
  - { offset: 0x1CFD5, size: 0x8, addend: 0x0, symName: _.str.110, symObjAddr: 0x56900, symBinAddr: 0x1000E1FE0, symSize: 0x0 }
  - { offset: 0x1CFE6, size: 0x8, addend: 0x0, symName: ___func__._ZN4Pika14stringToDoubleINS_8STLValueIN8QStrings7QStringIcLm52EEEEEEEdRNT_14const_iteratorERKS7_, symObjAddr: 0x56940, symBinAddr: 0x1000E2020, symSize: 0x0 }
  - { offset: 0x1D003, size: 0x8, addend: 0x0, symName: _.str.111, symObjAddr: 0x56960, symBinAddr: 0x1000E2040, symSize: 0x0 }
  - { offset: 0x1D014, size: 0x8, addend: 0x0, symName: ___func__._ZN4Pika12stringToLongINS_8STLValueIN8QStrings7QStringIcLm52EEEEEEElRNT_14const_iteratorERKS7_, symObjAddr: 0x56980, symBinAddr: 0x1000E2060, symSize: 0x0 }
  - { offset: 0x1D025, size: 0x8, addend: 0x0, symName: ___func__._ZN4Pika14doubleToStringIN8QStrings7QStringIcLm52EEEEET_di, symObjAddr: 0x569A0, symBinAddr: 0x1000E2080, symSize: 0x0 }
  - { offset: 0x1D036, size: 0x8, addend: 0x0, symName: _.str.112, symObjAddr: 0x569C0, symBinAddr: 0x1000E20A0, symSize: 0x0 }
  - { offset: 0x1D053, size: 0x8, addend: 0x0, symName: _.str.113, symObjAddr: 0x56A20, symBinAddr: 0x1000E2100, symSize: 0x0 }
  - { offset: 0x1D064, size: 0x8, addend: 0x0, symName: _.str.114, symObjAddr: 0x56A40, symBinAddr: 0x1000E2120, symSize: 0x0 }
  - { offset: 0x1D075, size: 0x8, addend: 0x0, symName: _.str.115, symObjAddr: 0x56A60, symBinAddr: 0x1000E2140, symSize: 0x0 }
  - { offset: 0x1D086, size: 0x8, addend: 0x0, symName: _.str.116, symObjAddr: 0x56A80, symBinAddr: 0x1000E2160, symSize: 0x0 }
  - { offset: 0x1D097, size: 0x8, addend: 0x0, symName: _.str.117, symObjAddr: 0x56AA0, symBinAddr: 0x1000E2180, symSize: 0x0 }
  - { offset: 0x1D0AA, size: 0x8, addend: 0x0, symName: _.str.118, symObjAddr: 0x56AC0, symBinAddr: 0x1000E21A0, symSize: 0x0 }
  - { offset: 0x1D0BD, size: 0x8, addend: 0x0, symName: _.str.119, symObjAddr: 0x56AE0, symBinAddr: 0x1000E21C0, symSize: 0x0 }
  - { offset: 0x1D0D0, size: 0x8, addend: 0x0, symName: _.str.120, symObjAddr: 0x56B00, symBinAddr: 0x1000E21E0, symSize: 0x0 }
  - { offset: 0x1D0E3, size: 0x8, addend: 0x0, symName: _.str.121, symObjAddr: 0x56B20, symBinAddr: 0x1000E2200, symSize: 0x0 }
  - { offset: 0x1D0F4, size: 0x8, addend: 0x0, symName: _.str.122, symObjAddr: 0x56B60, symBinAddr: 0x1000E2240, symSize: 0x0 }
  - { offset: 0x1D105, size: 0x8, addend: 0x0, symName: _.str.123, symObjAddr: 0x56B80, symBinAddr: 0x1000E2260, symSize: 0x0 }
  - { offset: 0x1D118, size: 0x8, addend: 0x0, symName: ___func__._ZNK4Pika6ScriptI19QuickerScriptConfigE5Frame11getPreviousEv, symObjAddr: 0x56BA0, symBinAddr: 0x1000E2280, symSize: 0x0 }
  - { offset: 0x1D12B, size: 0x8, addend: 0x0, symName: _.str.124, symObjAddr: 0x56BC0, symBinAddr: 0x1000E22A0, symSize: 0x0 }
  - { offset: 0x1D13E, size: 0x8, addend: 0x0, symName: _.str.125, symObjAddr: 0x56BE0, symBinAddr: 0x1000E22C0, symSize: 0x0 }
  - { offset: 0x1D15D, size: 0x8, addend: 0x0, symName: _.str.126, symObjAddr: 0x56C00, symBinAddr: 0x1000E22E0, symSize: 0x0 }
  - { offset: 0x1D170, size: 0x8, addend: 0x0, symName: _.str.127, symObjAddr: 0x56C40, symBinAddr: 0x1000E2320, symSize: 0x0 }
  - { offset: 0x1D18F, size: 0x8, addend: 0x0, symName: _.str.128, symObjAddr: 0x56C80, symBinAddr: 0x1000E2360, symSize: 0x0 }
  - { offset: 0x1D1A2, size: 0x8, addend: 0x0, symName: _.str.129, symObjAddr: 0x56CA0, symBinAddr: 0x1000E2380, symSize: 0x0 }
  - { offset: 0x1D1B5, size: 0x8, addend: 0x0, symName: ___func__._ZN4Pika6ScriptI19QuickerScriptConfigE5Frame4callERKN8QStrings7QStringIcLm52EEERKNS_8STLValueIS6_EElPSB_, symObjAddr: 0x56CC0, symBinAddr: 0x1000E23A0, symSize: 0x0 }
  - { offset: 0x1D1C8, size: 0x8, addend: 0x0, symName: _.str.130, symObjAddr: 0x56CE0, symBinAddr: 0x1000E23C0, symSize: 0x0 }
  - { offset: 0x1D1DB, size: 0x8, addend: 0x0, symName: _.str.131, symObjAddr: 0x56D00, symBinAddr: 0x1000E23E0, symSize: 0x0 }
  - { offset: 0x1D1EE, size: 0x8, addend: 0x0, symName: _.str.132, symObjAddr: 0x56D20, symBinAddr: 0x1000E2400, symSize: 0x0 }
  - { offset: 0x1D201, size: 0x8, addend: 0x0, symName: _.str.133, symObjAddr: 0x56D40, symBinAddr: 0x1000E2420, symSize: 0x0 }
  - { offset: 0x1D220, size: 0x8, addend: 0x0, symName: _.str.134, symObjAddr: 0x56D80, symBinAddr: 0x1000E2460, symSize: 0x0 }
  - { offset: 0x1D233, size: 0x8, addend: 0x0, symName: _.str.135, symObjAddr: 0x56DC0, symBinAddr: 0x1000E24A0, symSize: 0x0 }
  - { offset: 0x1D246, size: 0x8, addend: 0x0, symName: _.str.136, symObjAddr: 0x56DE0, symBinAddr: 0x1000E24C0, symSize: 0x0 }
  - { offset: 0x1D259, size: 0x8, addend: 0x0, symName: _.str.137, symObjAddr: 0x56E00, symBinAddr: 0x1000E24E0, symSize: 0x0 }
  - { offset: 0x1D26C, size: 0x8, addend: 0x0, symName: _.str.138, symObjAddr: 0x56E20, symBinAddr: 0x1000E2500, symSize: 0x0 }
  - { offset: 0x1D27F, size: 0x8, addend: 0x0, symName: _.str.139, symObjAddr: 0x56E40, symBinAddr: 0x1000E2520, symSize: 0x0 }
  - { offset: 0x1D292, size: 0x8, addend: 0x0, symName: _.str.140, symObjAddr: 0x56E80, symBinAddr: 0x1000E2560, symSize: 0x0 }
  - { offset: 0x1D2A5, size: 0x8, addend: 0x0, symName: _.str.141, symObjAddr: 0x56EC0, symBinAddr: 0x1000E25A0, symSize: 0x0 }
  - { offset: 0x1D2B8, size: 0x8, addend: 0x0, symName: _.str.142, symObjAddr: 0x56F00, symBinAddr: 0x1000E25E0, symSize: 0x0 }
  - { offset: 0x1D2CB, size: 0x8, addend: 0x0, symName: _.str.143, symObjAddr: 0x56F20, symBinAddr: 0x1000E2600, symSize: 0x0 }
  - { offset: 0x1D2DE, size: 0x8, addend: 0x0, symName: _.str.144, symObjAddr: 0x56F40, symBinAddr: 0x1000E2620, symSize: 0x0 }
  - { offset: 0x1D2F1, size: 0x8, addend: 0x0, symName: _.str.145, symObjAddr: 0x56F60, symBinAddr: 0x1000E2640, symSize: 0x0 }
  - { offset: 0x1D304, size: 0x8, addend: 0x0, symName: _.str.146, symObjAddr: 0x56F80, symBinAddr: 0x1000E2660, symSize: 0x0 }
  - { offset: 0x1D317, size: 0x8, addend: 0x0, symName: ___func__._ZN4Pika6ScriptI19QuickerScriptConfigE5Frame4exprERN8QStrings7QStringIcLm52EE9_iteratorIKcKS6_EERKSA_RNSt3__14pairIbNS_8STLValueIS6_EEEEbbNS_10PrecedenceE, symObjAddr: 0x56FA0, symBinAddr: 0x1000E2680, symSize: 0x0 }
  - { offset: 0x1D32A, size: 0x8, addend: 0x0, symName: _.str.147, symObjAddr: 0x56FC0, symBinAddr: 0x1000E26A0, symSize: 0x0 }
  - { offset: 0x1D33D, size: 0x8, addend: 0x0, symName: ___func__._ZN4Pika6ScriptI19QuickerScriptConfigE5Frame5whiteERN8QStrings7QStringIcLm52EE9_iteratorIKcKS6_EERKSA_, symObjAddr: 0x56FE0, symBinAddr: 0x1000E26C0, symSize: 0x0 }
  - { offset: 0x1D5C9, size: 0x8, addend: 0x0, symName: __ZN4Pika6ScriptI19QuickerScriptConfigE5Frame5whiteERN8QStrings7QStringIcLm52EE9_iteratorIKcKS6_EERKSA_, symObjAddr: 0x34EB8, symBinAddr: 0x10003A36C, symSize: 0x900 }
  - { offset: 0x1D5F1, size: 0x8, addend: 0x0, symName: __ZZN4Pika6ScriptI19QuickerScriptConfigE5Frame5whiteERN8QStrings7QStringIcLm52EE9_iteratorIKcKS6_EERKSA_E9END_CHARS, symObjAddr: 0x54CC4, symBinAddr: 0x1000DF654, symSize: 0x0 }
  - { offset: 0x1D608, size: 0x8, addend: 0x0, symName: __ZZN4Pika6ScriptI19QuickerScriptConfigE5Frame5whiteERN8QStrings7QStringIcLm52EE9_iteratorIKcKS6_EERKSA_E9END_CHARS_0, symObjAddr: 0x54CC6, symBinAddr: 0x1000DF656, symSize: 0x0 }
  - { offset: 0x1DA1C, size: 0x8, addend: 0x0, symName: _.str.148, symObjAddr: 0x57000, symBinAddr: 0x1000E26E0, symSize: 0x0 }
  - { offset: 0x1DA2F, size: 0x8, addend: 0x0, symName: ___func__._ZN4Pika6ScriptI19QuickerScriptConfigE5Frame4postERN8QStrings7QStringIcLm52EE9_iteratorIKcKS6_EERKSA_RNSt3__14pairIbNS_8STLValueIS6_EEEEbNS_10PrecedenceE, symObjAddr: 0x57020, symBinAddr: 0x1000E2700, symSize: 0x0 }
  - { offset: 0x1DA42, size: 0x8, addend: 0x0, symName: _.str.149, symObjAddr: 0x57040, symBinAddr: 0x1000E2720, symSize: 0x0 }
  - { offset: 0x1DA61, size: 0x8, addend: 0x0, symName: _.str.150, symObjAddr: 0x57080, symBinAddr: 0x1000E2760, symSize: 0x0 }
  - { offset: 0x1DA74, size: 0x8, addend: 0x0, symName: ___func__._ZN4Pika6ScriptI19QuickerScriptConfigE5Frame12assignableOpINSt3__17dividesIdEEEEbRN8QStrings7QStringIcLm52EE9_iteratorIKcKSA_EERKSE_RNS5_4pairIbNS_8STLValueISA_EEEEbNS_10PrecedenceEiSN_T_, symObjAddr: 0x570C0, symBinAddr: 0x1000E27A0, symSize: 0x0 }
  - { offset: 0x1DA87, size: 0x8, addend: 0x0, symName: _.str.151, symObjAddr: 0x570E0, symBinAddr: 0x1000E27C0, symSize: 0x0 }
  - { offset: 0x1DA9A, size: 0x8, addend: 0x0, symName: ___func__._ZN4Pika6ScriptI19QuickerScriptConfigE5Frame8binaryOpINSt3__17dividesIdEEEEbRN8QStrings7QStringIcLm52EE9_iteratorIKcKSA_EERKSE_RNS5_4pairIbNS_8STLValueISA_EEEEbNS_10PrecedenceEiSN_T_, symObjAddr: 0x57100, symBinAddr: 0x1000E27E0, symSize: 0x0 }
  - { offset: 0x1DAAD, size: 0x8, addend: 0x0, symName: ___func__._ZN4Pika6ScriptI19QuickerScriptConfigE5Frame8addSubOpINSt3__14plusIdEEEEbRN8QStrings7QStringIcLm52EE9_iteratorIKcKSA_EERKSE_RNS5_4pairIbNS_8STLValueISA_EEEEbNS_10PrecedenceERKT_, symObjAddr: 0x57120, symBinAddr: 0x1000E2800, symSize: 0x0 }
  - { offset: 0x1DAC0, size: 0x8, addend: 0x0, symName: _.str.152, symObjAddr: 0x57140, symBinAddr: 0x1000E2820, symSize: 0x0 }
  - { offset: 0x1DAD3, size: 0x8, addend: 0x0, symName: ___func__._ZN4Pika6ScriptI19QuickerScriptConfigE5Frame5lgtOpINSt3__14lessINS_8STLValueIN8QStrings7QStringIcLm52EEEEEEENS5_10less_equalISB_EEPFmmiEEEbRNSA_9_iteratorIKcKSA_EERKSK_RNS5_4pairIbSB_EEbNS_10PrecedenceERKT_RKT0_T1_, symObjAddr: 0x57180, symBinAddr: 0x1000E2860, symSize: 0x0 }
  - { offset: 0x1DAE6, size: 0x8, addend: 0x0, symName: _.str.153, symObjAddr: 0x571A0, symBinAddr: 0x1000E2880, symSize: 0x0 }
  - { offset: 0x1DAF9, size: 0x8, addend: 0x0, symName: ___func__._ZN4Pika6ScriptI19QuickerScriptConfigE5Frame8termExprERN8QStrings7QStringIcLm52EE9_iteratorIKcKS6_EERKSA_RNSt3__14pairIbNS_8STLValueIS6_EEEEbbNS_10PrecedenceEc, symObjAddr: 0x571C0, symBinAddr: 0x1000E28A0, symSize: 0x0 }
  - { offset: 0x1DB0C, size: 0x8, addend: 0x0, symName: _.str.154, symObjAddr: 0x571E0, symBinAddr: 0x1000E28C0, symSize: 0x0 }
  - { offset: 0x1DB1F, size: 0x8, addend: 0x0, symName: ___func__._ZN4Pika6ScriptI19QuickerScriptConfigE5Frame5tokenERN8QStrings7QStringIcLm52EE9_iteratorIKcKS6_EERKSA_PS8_, symObjAddr: 0x57200, symBinAddr: 0x1000E28E0, symSize: 0x0 }
  - { offset: 0x1DB32, size: 0x8, addend: 0x0, symName: ___func__._ZN4Pika6ScriptI19QuickerScriptConfigE5Frame3preERN8QStrings7QStringIcLm52EE9_iteratorIKcKS6_EERKSA_RNSt3__14pairIbNS_8STLValueIS6_EEEEb, symObjAddr: 0x57220, symBinAddr: 0x1000E2900, symSize: 0x0 }
  - { offset: 0x1DB45, size: 0x8, addend: 0x0, symName: _.str.155, symObjAddr: 0x57240, symBinAddr: 0x1000E2920, symSize: 0x0 }
  - { offset: 0x1DB58, size: 0x8, addend: 0x0, symName: _.str.156, symObjAddr: 0x57260, symBinAddr: 0x1000E2940, symSize: 0x0 }
  - { offset: 0x1DB6B, size: 0x8, addend: 0x0, symName: _.str.157, symObjAddr: 0x572C0, symBinAddr: 0x1000E29A0, symSize: 0x0 }
  - { offset: 0x1DB7E, size: 0x8, addend: 0x0, symName: _.str.158, symObjAddr: 0x572E0, symBinAddr: 0x1000E29C0, symSize: 0x0 }
  - { offset: 0x1DB91, size: 0x8, addend: 0x0, symName: _.str.159, symObjAddr: 0x57300, symBinAddr: 0x1000E29E0, symSize: 0x0 }
  - { offset: 0x1DBB0, size: 0x8, addend: 0x0, symName: _.str.160, symObjAddr: 0x57340, symBinAddr: 0x1000E2A20, symSize: 0x0 }
  - { offset: 0x1DBCF, size: 0x8, addend: 0x0, symName: _.str.161, symObjAddr: 0x57380, symBinAddr: 0x1000E2A60, symSize: 0x0 }
  - { offset: 0x1DBE2, size: 0x8, addend: 0x0, symName: _.str.162, symObjAddr: 0x573A0, symBinAddr: 0x1000E2A80, symSize: 0x0 }
  - { offset: 0x1DBF5, size: 0x8, addend: 0x0, symName: _.str.163, symObjAddr: 0x573C0, symBinAddr: 0x1000E2AA0, symSize: 0x0 }
  - { offset: 0x1DC08, size: 0x8, addend: 0x0, symName: _.str.164, symObjAddr: 0x573E0, symBinAddr: 0x1000E2AC0, symSize: 0x0 }
  - { offset: 0x1DC19, size: 0x8, addend: 0x0, symName: ___func__._ZN4Pika8unescapeIN8QStrings7QStringIcLm52EEEEET_RNS4_14const_iteratorERKS5_, symObjAddr: 0x57400, symBinAddr: 0x1000E2AE0, symSize: 0x0 }
  - { offset: 0x1DC3B, size: 0x8, addend: 0x0, symName: _.str.165, symObjAddr: 0x57420, symBinAddr: 0x1000E2B00, symSize: 0x0 }
  - { offset: 0x1DC4C, size: 0x8, addend: 0x0, symName: _.str.166, symObjAddr: 0x57460, symBinAddr: 0x1000E2B40, symSize: 0x0 }
  - { offset: 0x1DC5D, size: 0x8, addend: 0x0, symName: _.str.167, symObjAddr: 0x574A0, symBinAddr: 0x1000E2B80, symSize: 0x0 }
  - { offset: 0x1DC6E, size: 0x8, addend: 0x0, symName: ___func__._ZN4Pika9hexToLongIN8QStrings7QStringIcLm52EEEEEmRNT_14const_iteratorERKS5_, symObjAddr: 0x574E0, symBinAddr: 0x1000E2BC0, symSize: 0x0 }
  - { offset: 0x1DC81, size: 0x8, addend: 0x0, symName: _.str.168, symObjAddr: 0x57500, symBinAddr: 0x1000E2BE0, symSize: 0x0 }
  - { offset: 0x1DC94, size: 0x8, addend: 0x0, symName: _.str.169, symObjAddr: 0x57540, symBinAddr: 0x1000E2C20, symSize: 0x0 }
  - { offset: 0x1DCA7, size: 0x8, addend: 0x0, symName: _.str.170, symObjAddr: 0x57580, symBinAddr: 0x1000E2C60, symSize: 0x0 }
  - { offset: 0x1DCBA, size: 0x8, addend: 0x0, symName: _.str.171, symObjAddr: 0x575C0, symBinAddr: 0x1000E2CA0, symSize: 0x0 }
  - { offset: 0x1DCCD, size: 0x8, addend: 0x0, symName: _.str.172, symObjAddr: 0x57600, symBinAddr: 0x1000E2CE0, symSize: 0x0 }
  - { offset: 0x1DCEC, size: 0x8, addend: 0x0, symName: _.str.173, symObjAddr: 0x57640, symBinAddr: 0x1000E2D20, symSize: 0x0 }
  - { offset: 0x1DD09, size: 0x8, addend: 0x0, symName: _.str.174, symObjAddr: 0x576A0, symBinAddr: 0x1000E2D80, symSize: 0x0 }
  - { offset: 0x1DD1A, size: 0x8, addend: 0x0, symName: _.str.175, symObjAddr: 0x576C0, symBinAddr: 0x1000E2DA0, symSize: 0x0 }
  - { offset: 0x1DD3E, size: 0x8, addend: 0x0, symName: _.str.176, symObjAddr: 0x576E0, symBinAddr: 0x1000E2DC0, symSize: 0x0 }
  - { offset: 0x1DD51, size: 0x8, addend: 0x0, symName: _.str.177, symObjAddr: 0x57720, symBinAddr: 0x1000E2E00, symSize: 0x0 }
  - { offset: 0x1DD64, size: 0x8, addend: 0x0, symName: _.str.178, symObjAddr: 0x57740, symBinAddr: 0x1000E2E20, symSize: 0x0 }
  - { offset: 0x1E9F9, size: 0x8, addend: 0x0, symName: ___cxx_global_array_dtor, symObjAddr: 0x507D8, symBinAddr: 0x100055C8C, symSize: 0x80 }
  - { offset: 0x1EAEB, size: 0x8, addend: 0x0, symName: __ZN8QStrings7QStringIcLm52EE7releaseEv, symObjAddr: 0x7E90, symBinAddr: 0x10000D344, symSize: 0x1FC }
  - { offset: 0x1F2D7, size: 0x8, addend: 0x0, symName: __Z14overloadedLoadRKN8QStrings7QStringIcLm52EEE, symObjAddr: 0x10, symBinAddr: 0x1000054C4, symSize: 0xFA4 }
  - { offset: 0x2019A, size: 0x8, addend: 0x0, symName: __ZNSt3__112basic_stringIcNS_11char_traitsIcEENS_9allocatorIcEEEC2B8ne200100IN8QStrings7QStringIcLm52EE9_iteratorIKcKS9_EETnNS_9enable_ifIXsr29__has_input_iterator_categoryIT_EE5valueEiE4typeELi0EEESF_SF_, symObjAddr: 0x4EE4C, symBinAddr: 0x100054300, symSize: 0xC4 }
  - { offset: 0x20268, size: 0x8, addend: 0x0, symName: __ZNSt3__112basic_stringIcNS_11char_traitsIcEENS_9allocatorIcEEE16__init_with_sizeB8ne200100IN8QStrings7QStringIcLm52EE9_iteratorIKcKS9_EESD_EEvT_T0_m, symObjAddr: 0x4EF10, symBinAddr: 0x1000543C4, symSize: 0x2AC }
  - { offset: 0x2028A, size: 0x8, addend: 0x0, symName: __ZNSt3__114basic_ifstreamIcNS_11char_traitsIcEEEC1EPKcj, symObjAddr: 0xFB4, symBinAddr: 0x100006468, symSize: 0x3B4 }
  - { offset: 0x20392, size: 0x8, addend: 0x0, symName: __ZNSt3__112basic_stringIcNS_11char_traitsIcEENS_9allocatorIcEEEC2B8ne200100EPKcm, symObjAddr: 0x7958, symBinAddr: 0x10000CE0C, symSize: 0x1E8 }
  - { offset: 0x205FA, size: 0x8, addend: 0x0, symName: __ZL8loadFileRNSt3__114basic_ifstreamIcNS_11char_traitsIcEEEERKNS_12basic_stringIcS2_NS_9allocatorIcEEEE, symObjAddr: 0x1368, symBinAddr: 0x10000681C, symSize: 0x950 }
  - { offset: 0x20C82, size: 0x8, addend: 0x0, symName: __ZNK8QStrings7QStringIcLm52EEeqERKS1_, symObjAddr: 0x21DC, symBinAddr: 0x100007690, symSize: 0x13C }
  - { offset: 0x20CF0, size: 0x8, addend: 0x0, symName: __ZN8QStrings7QStringIcLm52EEpLERKS1_, symObjAddr: 0x3024, symBinAddr: 0x1000084D8, symSize: 0x1F8 }
  - { offset: 0x20D81, size: 0x8, addend: 0x0, symName: __ZNSt3__114basic_ifstreamIcNS_11char_traitsIcEEED1Ev, symObjAddr: 0x1CB8, symBinAddr: 0x10000716C, symSize: 0x194 }
  - { offset: 0x210AE, size: 0x8, addend: 0x0, symName: __ZN8QStrings7QStringIcLm52EE9newBufferEmPKcm, symObjAddr: 0x7BC8, symBinAddr: 0x10000D07C, symSize: 0x2C8 }
  - { offset: 0x21264, size: 0x8, addend: 0x0, symName: __ZNSt3__112basic_stringIcNS_11char_traitsIcEENS_9allocatorIcEEEC2B8ne200100ENS_24__uninitialized_size_tagEmRKS4_, symObjAddr: 0x4F364, symBinAddr: 0x100054818, symSize: 0x188 }
  - { offset: 0x21649, size: 0x8, addend: 0x0, symName: __ZN8QStrings7QStringIcLm52EE6appendEPKcm, symObjAddr: 0x20404, symBinAddr: 0x1000258B8, symSize: 0x70C }
  - { offset: 0x217B9, size: 0x8, addend: 0x0, symName: __ZN8QStrings7QStringIcLm52EEC2ENS1_9_iteratorIKcKS1_EES5_, symObjAddr: 0x1F598, symBinAddr: 0x100024A4C, symSize: 0x280 }
  - { offset: 0x21900, size: 0x8, addend: 0x0, symName: __ZN4Pika9ExceptionIN8QStrings7QStringIcLm52EEEEC1ERKS3_, symObjAddr: 0x321C, symBinAddr: 0x1000086D0, symSize: 0x154 }
  - { offset: 0x219C1, size: 0x8, addend: 0x0, symName: __ZN4Pika9ExceptionIN8QStrings7QStringIcLm52EEEED1Ev, symObjAddr: 0x3370, symBinAddr: 0x100008824, symSize: 0x14 }
  - { offset: 0x219F7, size: 0x8, addend: 0x0, symName: __ZN4Pika9ExceptionIN8QStrings7QStringIcLm52EEEED2Ev, symObjAddr: 0x4ED60, symBinAddr: 0x100054214, symSize: 0xEC }
  - { offset: 0x21BF1, size: 0x8, addend: 0x0, symName: __Z17getEnvironmentVarRKN8QStrings7QStringIcLm52EEE, symObjAddr: 0x3384, symBinAddr: 0x100008838, symSize: 0x488 }
  - { offset: 0x220C8, size: 0x8, addend: 0x0, symName: __ZNK8QStrings7QStringIcLm52EE7unshareEv, symObjAddr: 0x2DAAC, symBinAddr: 0x100032F60, symSize: 0x2C4 }
  - { offset: 0x221BE, size: 0x8, addend: 0x0, symName: __ZNSt3__112basic_stringIcNS_11char_traitsIcEENS_9allocatorIcEEEC2B8ne200100ILi0EEEPKc, symObjAddr: 0x4E764, symBinAddr: 0x100053C18, symSize: 0x1F0 }
  - { offset: 0x22A39, size: 0x8, addend: 0x0, symName: _LLVMFuzzerTestOneInput, symObjAddr: 0x380C, symBinAddr: 0x100008CC0, symSize: 0xC40 }
  - { offset: 0x23E75, size: 0x8, addend: 0x0, symName: __ZN11LibFuzzRootC2Ev, symObjAddr: 0x808C, symBinAddr: 0x10000D540, symSize: 0x298 }
  - { offset: 0x23FD8, size: 0x8, addend: 0x0, symName: __ZN4Pika6ScriptI19QuickerScriptConfigE5Frame14registerNativeERKN8QStrings7QStringIcLm52EEEPNS2_6NativeE, symObjAddr: 0x1F818, symBinAddr: 0x100024CCC, symSize: 0x7C0 }
  - { offset: 0x24620, size: 0x8, addend: 0x0, symName: __ZN4Pika8STLValueIN8QStrings7QStringIcLm52EEEEC2Ei, symObjAddr: 0x4FD68, symBinAddr: 0x10005521C, symSize: 0x204 }
  - { offset: 0x246E2, size: 0x8, addend: 0x0, symName: __ZN4Pika9QuickVarsINS_6ScriptI19QuickerScriptConfigE12STLVariablesELj11EE6assignERKN8QStrings7QStringIcLm52EEERKNS_8STLValueIS8_EE, symObjAddr: 0x444C, symBinAddr: 0x100009900, symSize: 0x52C }
  - { offset: 0x24CE7, size: 0x8, addend: 0x0, symName: __ZN4Pika9QuickVarsINS_6ScriptI19QuickerScriptConfigE12STLVariablesELj11EE5eraseERKN8QStrings7QStringIcLm52EEE, symObjAddr: 0x4978, symBinAddr: 0x100009E2C, symSize: 0x244 }
  - { offset: 0x24F9D, size: 0x8, addend: 0x0, symName: __ZN8QStrings7QStringIcLm52EEC2EPKcS3_, symObjAddr: 0x50614, symBinAddr: 0x100055AC8, symSize: 0x100 }
  - { offset: 0x25027, size: 0x8, addend: 0x0, symName: _sancov.module_ctor_8bit_counters, symObjAddr: 0x50714, symBinAddr: 0x100055BC8, symSize: 0x48 }
  - { offset: 0x2503A, size: 0x8, addend: 0x0, symName: __ZN4Pika6ScriptI19QuickerScriptConfigE5Frame8evaluateEN8QStrings7QStringIcLm52EEE, symObjAddr: 0x4BBC, symBinAddr: 0x10000A070, symSize: 0x124C }
  - { offset: 0x26781, size: 0x8, addend: 0x0, symName: __ZN4Pika6ScriptI19QuickerScriptConfigE12STLVariablesD2Ev, symObjAddr: 0xEF9C, symBinAddr: 0x100014450, symSize: 0x2FC }
  - { offset: 0x26A48, size: 0x8, addend: 0x0, symName: __ZN4Pika6ScriptI19QuickerScriptConfigE4RootD2Ev, symObjAddr: 0xDBA0, symBinAddr: 0x100013054, symSize: 0x98 }
  - { offset: 0x26B2B, size: 0x8, addend: 0x0, symName: __ZN11LibFuzzRootD1Ev, symObjAddr: 0x5E08, symBinAddr: 0x10000B2BC, symSize: 0x188 }
  - { offset: 0x26F2C, size: 0x8, addend: 0x0, symName: __ZN4Pika9QuickVarsINS_6ScriptI19QuickerScriptConfigE12STLVariablesELj11EE4hashERKN8QStrings7QStringIcLm52EEE, symObjAddr: 0x4D8B4, symBinAddr: 0x100052D68, symSize: 0x624 }
  - { offset: 0x27106, size: 0x8, addend: 0x0, symName: __ZNSt3__14pairIN8QStrings7QStringIcLm52EEEN4Pika8STLValueIS3_EEEaSB8ne200100ERKS7_, symObjAddr: 0x4DED8, symBinAddr: 0x10005338C, symSize: 0x268 }
  - { offset: 0x271EF, size: 0x8, addend: 0x0, symName: __ZNSt3__13mapIKN8QStrings7QStringIcLm52EEEN4Pika8STLValueIS3_EENS_4lessIS4_EENS_9allocatorINS_4pairIS4_S7_EEEEEixERS4_, symObjAddr: 0x10220, symBinAddr: 0x1000156D4, symSize: 0xCC }
  - { offset: 0x2738C, size: 0x8, addend: 0x0, symName: __ZNSt3__16__treeINS_12__value_typeIKN8QStrings7QStringIcLm52EEEN4Pika8STLValueIS4_EEEENS_19__map_value_compareIS5_S9_NS_4lessIS5_EELb1EEENS_9allocatorIS9_EEE14__erase_uniqueIS4_EEmRKT_, symObjAddr: 0x11498, symBinAddr: 0x10001694C, symSize: 0x74 }
  - { offset: 0x27446, size: 0x8, addend: 0x0, symName: __ZNSt3__14pairIKN8QStrings7QStringIcLm52EEEN4Pika8STLValueIS3_EEEC2B8ne200100Ev, symObjAddr: 0x501D4, symBinAddr: 0x100055688, symSize: 0x1DC }
  - { offset: 0x2756A, size: 0x8, addend: 0x0, symName: __ZNSt3__14pairIN8QStrings7QStringIcLm52EEEN4Pika8STLValueIS3_EEEaSB8ne200100IKS3_S6_TnNS_9enable_ifIXaasr13is_assignableIRS3_RKT_EE5valuesr13is_assignableIRS6_RKT0_EE5valueEiE4typeELi0EEERS7_RKNS0_ISC_SG_EE, symObjAddr: 0x4FF6C, symBinAddr: 0x100055420, symSize: 0x268 }
  - { offset: 0x27962, size: 0x8, addend: 0x0, symName: __ZN4Pika6ScriptI19QuickerScriptConfigE5Frame4tickERKN8QStrings7QStringIcLm52EE9_iteratorIKcKS6_EERKNSt3__14pairIbNS_8STLValueIS6_EEEENS_10PrecedenceEb, symObjAddr: 0x357B8, symBinAddr: 0x10003AC6C, symSize: 0x1D0 }
  - { offset: 0x27A1B, size: 0x8, addend: 0x0, symName: __ZN4Pika6ScriptI19QuickerScriptConfigE5Frame4exprERN8QStrings7QStringIcLm52EE9_iteratorIKcKS6_EERKSA_RNSt3__14pairIbNS_8STLValueIS6_EEEEbbNS_10PrecedenceE, symObjAddr: 0x2F810, symBinAddr: 0x100034CC4, symSize: 0x5CC }
  - { offset: 0x27D8D, size: 0x8, addend: 0x0, symName: __ZN4Pika6ScriptI19QuickerScriptConfigE5Frame6rvalueERKNSt3__14pairIbNS_8STLValueIN8QStrings7QStringIcLm52EEEEEEEb, symObjAddr: 0x41080, symBinAddr: 0x100046534, symSize: 0x168 }
  - { offset: 0x27E63, size: 0x8, addend: 0x0, symName: __ZNSt3__112basic_stringIcNS_11char_traitsIcEENS_9allocatorIcEEE16__init_with_sizeB8ne200100IPKcS8_EEvT_T0_m, symObjAddr: 0x503B0, symBinAddr: 0x100055864, symSize: 0x264 }
  - { offset: 0x28361, size: 0x8, addend: 0x0, symName: __ZNSt3__112basic_stringIcNS_11char_traitsIcEENS_9allocatorIcEEE25__init_copy_ctor_externalEPKcm, symObjAddr: 0x7420, symBinAddr: 0x10000C8D4, symSize: 0x198 }
  - { offset: 0x28591, size: 0x8, addend: 0x0, symName: __ZNSt3__112basic_stringIcNS_11char_traitsIcEENS_9allocatorIcEEE16__init_with_sizeB8ne200100INS_11__wrap_iterIPKcEESA_EEvT_T0_m, symObjAddr: 0x76E8, symBinAddr: 0x10000CB9C, symSize: 0x270 }
  - { offset: 0x28895, size: 0x8, addend: 0x0, symName: __ZN8QStrings7QStringIcLm52EE6BufferD1Ev, symObjAddr: 0x7034, symBinAddr: 0x10000C4E8, symSize: 0xA0 }
  - { offset: 0x289C2, size: 0x8, addend: 0x0, symName: __ZNSt3__112basic_stringIcNS_11char_traitsIcEENS_9allocatorIcEEE20__throw_length_errorB8ne200100Ev, symObjAddr: 0x75B8, symBinAddr: 0x10000CA6C, symSize: 0x18 }
  - { offset: 0x289DA, size: 0x8, addend: 0x0, symName: __ZNSt3__120__throw_length_errorB8ne200100EPKc, symObjAddr: 0x75D0, symBinAddr: 0x10000CA84, symSize: 0x84 }
  - { offset: 0x289E5, size: 0x8, addend: 0x0, symName: __ZNSt12length_errorC1B8ne200100EPKc, symObjAddr: 0x7654, symBinAddr: 0x10000CB08, symSize: 0x5C }
  - { offset: 0x28B14, size: 0x8, addend: 0x0, symName: __ZN8QStrings7QStringIcLm52EEC2EPKcmm, symObjAddr: 0x7B40, symBinAddr: 0x10000CFF4, symSize: 0x88 }
  - { offset: 0x28B61, size: 0x8, addend: 0x0, symName: __ZN8QStrings7QStringIcLm52EE9newBufferEmPKcm, symObjAddr: 0x7BC8, symBinAddr: 0x10000D07C, symSize: 0x2C8 }
  - { offset: 0x28BF3, size: 0x8, addend: 0x0, symName: __ZN4Pika6ScriptI19QuickerScriptConfigE8FullRootC2Eb, symObjAddr: 0x8324, symBinAddr: 0x10000D7D8, symSize: 0x2B8 }
  - { offset: 0x28EA9, size: 0x8, addend: 0x0, symName: __ZN11LibFuzzRoot12updateTracerEv, symObjAddr: 0x85DC, symBinAddr: 0x10000DA90, symSize: 0x1E4 }
  - { offset: 0x28FA0, size: 0x8, addend: 0x0, symName: __ZN4Pika6ScriptI19QuickerScriptConfigE8FullRootD2Ev, symObjAddr: 0x87C0, symBinAddr: 0x10000DC74, symSize: 0x138 }
  - { offset: 0x293BF, size: 0x8, addend: 0x0, symName: __ZN4Pika6ScriptI19QuickerScriptConfigE4RootC2ERNS2_9VariablesE, symObjAddr: 0xA1CC, symBinAddr: 0x10000F680, symSize: 0x324 }
  - { offset: 0x29583, size: 0x8, addend: 0x0, symName: __ZNSt3__14pairIN8QStrings7QStringIcLm52EEEN4Pika8STLValueIS3_EEEC2B8ne200100Ev, symObjAddr: 0x14780, symBinAddr: 0x100019C34, symSize: 0x1DC }
  - { offset: 0x296A7, size: 0x8, addend: 0x0, symName: __ZN4Pika6ScriptI19QuickerScriptConfigE17addLibraryNativesERNS2_5FrameEb, symObjAddr: 0xA4F0, symBinAddr: 0x10000F9A4, symSize: 0x3604 }
  - { offset: 0x2DF66, size: 0x8, addend: 0x0, symName: __ZN4Pika9QuickVarsINS_6ScriptI19QuickerScriptConfigE12STLVariablesELj11EED2Ev, symObjAddr: 0xDAF4, symBinAddr: 0x100012FA8, symSize: 0xAC }
  - { offset: 0x2E18E, size: 0x8, addend: 0x0, symName: __ZN11LibFuzzRootD0Ev, symObjAddr: 0x88F8, symBinAddr: 0x10000DDAC, symSize: 0x18C }
  - { offset: 0x2E4F6, size: 0x8, addend: 0x0, symName: __ZN11LibFuzzRoot5traceERN4Pika6ScriptI19QuickerScriptConfigE5FrameERKN8QStrings7QStringIcLm52EEEmbRKNS0_8STLValueIS8_EENS0_10PrecedenceEb, symObjAddr: 0x8A84, symBinAddr: 0x10000DF38, symSize: 0x388 }
  - { offset: 0x2E602, size: 0x8, addend: 0x0, symName: __ZN4Pika6ScriptI19QuickerScriptConfigE4Root5traceERNS2_5FrameERKN8QStrings7QStringIcLm52EEEmbRKNS_8STLValueIS8_EENS_10PrecedenceEb, symObjAddr: 0xDEAC, symBinAddr: 0x100013360, symSize: 0x7D0 }
  - { offset: 0x2EBB7, size: 0x8, addend: 0x0, symName: __ZN11LibFuzzRoot9setTracerEN4Pika10PrecedenceERKNS0_8STLValueIN8QStrings7QStringIcLm52EEEEE, symObjAddr: 0x8E0C, symBinAddr: 0x10000E2C0, symSize: 0x1B8 }
  - { offset: 0x2ECDE, size: 0x8, addend: 0x0, symName: __ZN4Pika9QuickVarsINS_6ScriptI19QuickerScriptConfigE12STLVariablesELj11EE6lookupERKN8QStrings7QStringIcLm52EEERNS_8STLValueIS8_EE, symObjAddr: 0x8FC4, symBinAddr: 0x10000E478, symSize: 0x5B4 }
  - { offset: 0x2F206, size: 0x8, addend: 0x0, symName: __ZNSt3__16__treeINS_12__value_typeIKN8QStrings7QStringIcLm52EEEN4Pika8STLValueIS4_EEEENS_19__map_value_compareIS5_S9_NS_4lessIS5_EELb1EEENS_9allocatorIS9_EEE4findIS4_EENS_15__tree_iteratorIS9_PNS_11__tree_nodeIS9_PvEElEERKT_, symObjAddr: 0xFF04, symBinAddr: 0x1000153B8, symSize: 0x154 }
  - { offset: 0x2F5D2, size: 0x8, addend: 0x0, symName: __ZN4Pika9QuickVarsINS_6ScriptI19QuickerScriptConfigE12STLVariablesELj11EE4listERKN8QStrings7QStringIcLm52EEERNSt3__16vectorINSB_4pairIS8_NS_8STLValueIS8_EEEENSB_9allocatorISG_EEEE, symObjAddr: 0x9578, symBinAddr: 0x10000EA2C, symSize: 0x82C }
  - { offset: 0x2FC2D, size: 0x8, addend: 0x0, symName: __ZNK8QStrings7QStringIcLm52EEltERKS1_, symObjAddr: 0x10058, symBinAddr: 0x10001550C, symSize: 0x1C8 }
  - { offset: 0x2FCC0, size: 0x8, addend: 0x0, symName: __ZN8QStrings7QStringIcLm52EEC2ERKS1_mm, symObjAddr: 0x13020, symBinAddr: 0x1000184D4, symSize: 0x204 }
  - { offset: 0x2FD29, size: 0x8, addend: 0x0, symName: __ZNSt3__16vectorINS_4pairIN8QStrings7QStringIcLm52EEEN4Pika8STLValueIS4_EEEENS_9allocatorIS8_EEE9push_backB8ne200100EOS8_, symObjAddr: 0x12F54, symBinAddr: 0x100018408, symSize: 0xCC }
  - { offset: 0x2FE0B, size: 0x8, addend: 0x0, symName: __ZN4Pika6ScriptI19QuickerScriptConfigE12STLVariables12lookupNativeERKN8QStrings7QStringIcLm52EEE, symObjAddr: 0x9DA4, symBinAddr: 0x10000F258, symSize: 0x90 }
  - { offset: 0x2FEC8, size: 0x8, addend: 0x0, symName: __ZNSt3__16__treeINS_12__value_typeIKN8QStrings7QStringIcLm52EEEPN4Pika6ScriptI19QuickerScriptConfigE6NativeEEENS_19__map_value_compareIS5_SC_NS_4lessIS5_EELb1EEENS_9allocatorISC_EEE4findIS4_EENS_15__tree_iteratorISC_PNS_11__tree_nodeISC_PvEElEERKT_, symObjAddr: 0x4E140, symBinAddr: 0x1000535F4, symSize: 0x154 }
  - { offset: 0x30110, size: 0x8, addend: 0x0, symName: __ZN4Pika6ScriptI19QuickerScriptConfigE12STLVariables12assignNativeERKN8QStrings7QStringIcLm52EEEPNS2_6NativeE, symObjAddr: 0x9E34, symBinAddr: 0x10000F2E8, symSize: 0x1FC }
  - { offset: 0x3036F, size: 0x8, addend: 0x0, symName: __ZNSt3__16__treeINS_12__value_typeIKN8QStrings7QStringIcLm52EEEPN4Pika6ScriptI19QuickerScriptConfigE6NativeEEENS_19__map_value_compareIS5_SC_NS_4lessIS5_EELb1EEENS_9allocatorISC_EEE25__emplace_unique_key_argsIS4_JRKNS_4pairIS5_SB_EEEEENSL_INS_15__tree_iteratorISC_PNS_11__tree_nodeISC_PvEElEEbEERKT_DpOT0_, symObjAddr: 0x4E294, symBinAddr: 0x100053748, symSize: 0x1F4 }
  - { offset: 0x30615, size: 0x8, addend: 0x0, symName: __ZThn152_N11LibFuzzRootD1Ev, symObjAddr: 0xA030, symBinAddr: 0x10000F4E4, symSize: 0x184 }
  - { offset: 0x30960, size: 0x8, addend: 0x0, symName: __ZThn152_N11LibFuzzRootD0Ev, symObjAddr: 0xA1B4, symBinAddr: 0x10000F668, symSize: 0x18 }
  - { offset: 0x3196C, size: 0x8, addend: 0x0, symName: __ZN4Pika6ScriptI19QuickerScriptConfigE5Frame3setERKN8QStrings7QStringIcLm52EEERKNS_8STLValueIS6_EE, symObjAddr: 0x14A28, symBinAddr: 0x100019EDC, symSize: 0x4D4 }
  - { offset: 0x31C98, size: 0x8, addend: 0x0, symName: __ZN4Pika6ScriptI19QuickerScriptConfigE8FullRootD1Ev, symObjAddr: 0xDC38, symBinAddr: 0x1000130EC, symSize: 0x138 }
  - { offset: 0x31F78, size: 0x8, addend: 0x0, symName: __ZN4Pika6ScriptI19QuickerScriptConfigE8FullRootD0Ev, symObjAddr: 0xDD70, symBinAddr: 0x100013224, symSize: 0x13C }
  - { offset: 0x322CE, size: 0x8, addend: 0x0, symName: __ZN4Pika8STLValueIN8QStrings7QStringIcLm52EEEEC2Em, symObjAddr: 0x279D8, symBinAddr: 0x10002CE8C, symSize: 0xF4 }
  - { offset: 0x323B3, size: 0x8, addend: 0x0, symName: __ZN4Pika8STLValueIN8QStrings7QStringIcLm52EEEEC2Eb, symObjAddr: 0x25778, symBinAddr: 0x10002AC2C, symSize: 0x168 }
  - { offset: 0x32481, size: 0x8, addend: 0x0, symName: __ZN4Pika6ScriptI19QuickerScriptConfigE5Frame4callERKN8QStrings7QStringIcLm52EEERKNS_8STLValueIS6_EElPSB_, symObjAddr: 0x28D94, symBinAddr: 0x10002E248, symSize: 0xB24 }
  - { offset: 0x33265, size: 0x8, addend: 0x0, symName: __ZN4Pika6ScriptI19QuickerScriptConfigE4Root9setTracerENS_10PrecedenceERKNS_8STLValueIN8QStrings7QStringIcLm52EEEEE, symObjAddr: 0xE67C, symBinAddr: 0x100013B30, symSize: 0x180 }
  - { offset: 0x33303, size: 0x8, addend: 0x0, symName: __ZThn152_N4Pika6ScriptI19QuickerScriptConfigE8FullRootD1Ev, symObjAddr: 0xE7FC, symBinAddr: 0x100013CB0, symSize: 0x134 }
  - { offset: 0x335F4, size: 0x8, addend: 0x0, symName: __ZThn152_N4Pika6ScriptI19QuickerScriptConfigE8FullRootD0Ev, symObjAddr: 0xE930, symBinAddr: 0x100013DE4, symSize: 0x140 }
  - { offset: 0x33902, size: 0x8, addend: 0x0, symName: __ZN4Pika6ScriptI19QuickerScriptConfigE4RootD1Ev, symObjAddr: 0xEA70, symBinAddr: 0x100013F24, symSize: 0x98 }
  - { offset: 0x33A19, size: 0x8, addend: 0x0, symName: __ZN4Pika6ScriptI19QuickerScriptConfigE4RootD0Ev, symObjAddr: 0xEB08, symBinAddr: 0x100013FBC, symSize: 0x98 }
  - { offset: 0x33B44, size: 0x8, addend: 0x0, symName: __ZN4Pika6ScriptI19QuickerScriptConfigE4Root13generateLabelEv, symObjAddr: 0xEBA0, symBinAddr: 0x100014054, symSize: 0x32C }
  - { offset: 0x33BD1, size: 0x8, addend: 0x0, symName: __ZN4Pika6ScriptI19QuickerScriptConfigE5FrameD1Ev, symObjAddr: 0xEECC, symBinAddr: 0x100014380, symSize: 0x68 }
  - { offset: 0x33C6B, size: 0x8, addend: 0x0, symName: __ZN4Pika6ScriptI19QuickerScriptConfigE5FrameD0Ev, symObjAddr: 0xEF34, symBinAddr: 0x1000143E8, symSize: 0x68 }
  - { offset: 0x33E6E, size: 0x8, addend: 0x0, symName: __ZNSt3__16__treeINS_12__value_typeIKN8QStrings7QStringIcLm52EEEPN4Pika6ScriptI19QuickerScriptConfigE6NativeEEENS_19__map_value_compareIS5_SC_NS_4lessIS5_EELb1EEENS_9allocatorISC_EEE7destroyEPNS_11__tree_nodeISC_PvEE, symObjAddr: 0x1495C, symBinAddr: 0x100019E10, symSize: 0xCC }
  - { offset: 0x3401D, size: 0x8, addend: 0x0, symName: __ZNSt3__16__treeINS_12__value_typeIKN8QStrings7QStringIcLm52EEEN4Pika8STLValueIS4_EEEENS_19__map_value_compareIS5_S9_NS_4lessIS5_EELb1EEENS_9allocatorIS9_EEE7destroyEPNS_11__tree_nodeIS9_PvEE, symObjAddr: 0xFE30, symBinAddr: 0x1000152E4, symSize: 0xD4 }
  - { offset: 0x341FE, size: 0x8, addend: 0x0, symName: __ZN4Pika9QuickVarsINS_6ScriptI19QuickerScriptConfigE12STLVariablesELj11EED1Ev, symObjAddr: 0xF298, symBinAddr: 0x10001474C, symSize: 0xAC }
  - { offset: 0x343DA, size: 0x8, addend: 0x0, symName: __ZN4Pika9QuickVarsINS_6ScriptI19QuickerScriptConfigE12STLVariablesELj11EED0Ev, symObjAddr: 0xF344, symBinAddr: 0x1000147F8, symSize: 0xD8 }
  - { offset: 0x345E7, size: 0x8, addend: 0x0, symName: __ZN4Pika6ScriptI19QuickerScriptConfigE12STLVariables6lookupERKN8QStrings7QStringIcLm52EEERNS_8STLValueIS6_EE, symObjAddr: 0xF41C, symBinAddr: 0x1000148D0, symSize: 0x1A0 }
  - { offset: 0x3474B, size: 0x8, addend: 0x0, symName: __ZN4Pika6ScriptI19QuickerScriptConfigE12STLVariables6assignERKN8QStrings7QStringIcLm52EEERKNS_8STLValueIS6_EE, symObjAddr: 0xF5BC, symBinAddr: 0x100014A70, symSize: 0x15C }
  - { offset: 0x34811, size: 0x8, addend: 0x0, symName: __ZN4Pika6ScriptI19QuickerScriptConfigE12STLVariables5eraseERKN8QStrings7QStringIcLm52EEE, symObjAddr: 0xF718, symBinAddr: 0x100014BCC, symSize: 0x48 }
  - { offset: 0x3487C, size: 0x8, addend: 0x0, symName: __ZN4Pika6ScriptI19QuickerScriptConfigE12STLVariables4listERKN8QStrings7QStringIcLm52EEERNSt3__16vectorINS9_4pairIS6_NS_8STLValueIS6_EEEENS9_9allocatorISE_EEEE, symObjAddr: 0xF760, symBinAddr: 0x100014C14, symSize: 0x654 }
  - { offset: 0x34E31, size: 0x8, addend: 0x0, symName: __ZN4Pika6ScriptI19QuickerScriptConfigE12STLVariablesD1Ev, symObjAddr: 0xFDB4, symBinAddr: 0x100015268, symSize: 0x14 }
  - { offset: 0x34E84, size: 0x8, addend: 0x0, symName: __ZN4Pika6ScriptI19QuickerScriptConfigE12STLVariablesD0Ev, symObjAddr: 0xFDC8, symBinAddr: 0x10001527C, symSize: 0x68 }
  - { offset: 0x35026, size: 0x8, addend: 0x0, symName: __ZNSt3__16__treeINS_12__value_typeIKN8QStrings7QStringIcLm52EEEN4Pika8STLValueIS4_EEEENS_19__map_value_compareIS5_S9_NS_4lessIS5_EELb1EEENS_9allocatorIS9_EEE12__find_equalIS4_EERPNS_16__tree_node_baseIPvEERPNS_15__tree_end_nodeISL_EERKT_, symObjAddr: 0x102EC, symBinAddr: 0x1000157A0, symSize: 0x180 }
  - { offset: 0x3516C, size: 0x8, addend: 0x0, symName: __ZNSt3__13mapIKN8QStrings7QStringIcLm52EEEN4Pika8STLValueIS3_EENS_4lessIS4_EENS_9allocatorINS_4pairIS4_S7_EEEEE25__construct_node_with_keyERS4_, symObjAddr: 0x1046C, symBinAddr: 0x100015920, symSize: 0x304 }
  - { offset: 0x3543A, size: 0x8, addend: 0x0, symName: __ZNSt3__16__treeINS_12__value_typeIKN8QStrings7QStringIcLm52EEEN4Pika8STLValueIS4_EEEENS_19__map_value_compareIS5_S9_NS_4lessIS5_EELb1EEENS_9allocatorIS9_EEE16__insert_node_atEPNS_15__tree_end_nodeIPNS_16__tree_node_baseIPvEEEERSL_SL_, symObjAddr: 0x10770, symBinAddr: 0x100015C24, symSize: 0x15C }
  - { offset: 0x356F1, size: 0x8, addend: 0x0, symName: __ZNSt3__121__map_node_destructorINS_9allocatorINS_11__tree_nodeINS_12__value_typeIKN8QStrings7QStringIcLm52EEEN4Pika8STLValueIS6_EEEEPvEEEEEclB8ne200100EPSD_, symObjAddr: 0x1136C, symBinAddr: 0x100016820, symSize: 0x12C }
  - { offset: 0x3596E, size: 0x8, addend: 0x0, symName: __ZNSt3__16__treeINS_12__value_typeIKN8QStrings7QStringIcLm52EEEN4Pika8STLValueIS4_EEEENS_19__map_value_compareIS5_S9_NS_4lessIS5_EELb1EEENS_9allocatorIS9_EEE5eraseENS_21__tree_const_iteratorIS9_PNS_11__tree_nodeIS9_PvEElEE, symObjAddr: 0x1150C, symBinAddr: 0x1000169C0, symSize: 0x50 }
  - { offset: 0x35B91, size: 0x8, addend: 0x0, symName: __ZNSt3__16__treeINS_12__value_typeIKN8QStrings7QStringIcLm52EEEN4Pika8STLValueIS4_EEEENS_19__map_value_compareIS5_S9_NS_4lessIS5_EELb1EEENS_9allocatorIS9_EEE21__remove_node_pointerEPNS_11__tree_nodeIS9_PvEE, symObjAddr: 0x1155C, symBinAddr: 0x100016A10, symSize: 0x1B8 }
  - { offset: 0x35CCD, size: 0x8, addend: 0x0, symName: __ZNSt3__16vectorINS_4pairIN8QStrings7QStringIcLm52EEEN4Pika8STLValueIS4_EEEENS_9allocatorIS8_EEE22__construct_one_at_endB8ne200100IJS8_EEEvDpOT_, symObjAddr: 0x13224, symBinAddr: 0x1000186D8, symSize: 0x258 }
  - { offset: 0x35ECD, size: 0x8, addend: 0x0, symName: __ZNSt3__16vectorINS_4pairIN8QStrings7QStringIcLm52EEEN4Pika8STLValueIS4_EEEENS_9allocatorIS8_EEE24__emplace_back_slow_pathIJS8_EEEPS8_DpOT_, symObjAddr: 0x1347C, symBinAddr: 0x100018930, symSize: 0x5E4 }
  - { offset: 0x363BC, size: 0x8, addend: 0x0, symName: __ZNKSt3__16vectorINS_4pairIN8QStrings7QStringIcLm52EEEN4Pika8STLValueIS4_EEEENS_9allocatorIS8_EEE19__annotate_increaseB8ne200100Em, symObjAddr: 0x13A60, symBinAddr: 0x100018F14, symSize: 0xE4 }
  - { offset: 0x365FE, size: 0x8, addend: 0x0, symName: __ZNSt3__16vectorINS_4pairIN8QStrings7QStringIcLm52EEEN4Pika8STLValueIS4_EEEENS_9allocatorIS8_EEE26__swap_out_circular_bufferERNS_14__split_bufferIS8_RSA_EE, symObjAddr: 0x13C28, symBinAddr: 0x1000190DC, symSize: 0x1C8 }
  - { offset: 0x36719, size: 0x8, addend: 0x0, symName: __ZNSt3__114__split_bufferINS_4pairIN8QStrings7QStringIcLm52EEEN4Pika8STLValueIS4_EEEERNS_9allocatorIS8_EEED2Ev, symObjAddr: 0x145E4, symBinAddr: 0x100019A98, symSize: 0xA8 }
  - { offset: 0x36800, size: 0x8, addend: 0x0, symName: __ZNSt3__16vectorINS_4pairIN8QStrings7QStringIcLm52EEEN4Pika8STLValueIS4_EEEENS_9allocatorIS8_EEE20__throw_length_errorB8ne200100Ev, symObjAddr: 0x13DF0, symBinAddr: 0x1000192A4, symSize: 0x18 }
  - { offset: 0x36818, size: 0x8, addend: 0x0, symName: __ZNSt3__119__allocate_at_leastB8ne200100INS_9allocatorINS_4pairIN8QStrings7QStringIcLm52EEEN4Pika8STLValueIS5_EEEEEEEENS_19__allocation_resultINS_16allocator_traitsIT_E7pointerEEERSD_m, symObjAddr: 0x13E08, symBinAddr: 0x1000192BC, symSize: 0x80 }
  - { offset: 0x36886, size: 0x8, addend: 0x0, symName: __ZNKSt3__16vectorINS_4pairIN8QStrings7QStringIcLm52EEEN4Pika8STLValueIS4_EEEENS_9allocatorIS8_EEE17__annotate_shrinkB8ne200100Em, symObjAddr: 0x13B44, symBinAddr: 0x100018FF8, symSize: 0xE4 }
  - { offset: 0x36962, size: 0x8, addend: 0x0, symName: __ZNKSt3__16vectorINS_4pairIN8QStrings7QStringIcLm52EEEN4Pika8STLValueIS4_EEEENS_9allocatorIS8_EEE17__annotate_deleteB8ne200100Ev, symObjAddr: 0x13E88, symBinAddr: 0x10001933C, symSize: 0xE0 }
  - { offset: 0x36A2E, size: 0x8, addend: 0x0, symName: __ZNKSt3__16vectorINS_4pairIN8QStrings7QStringIcLm52EEEN4Pika8STLValueIS4_EEEENS_9allocatorIS8_EEE14__annotate_newB8ne200100Em, symObjAddr: 0x14404, symBinAddr: 0x1000198B8, symSize: 0xCC }
  - { offset: 0x36C8B, size: 0x8, addend: 0x0, symName: __ZNKSt3__129_AllocatorDestroyRangeReverseINS_9allocatorINS_4pairIN8QStrings7QStringIcLm52EEEN4Pika8STLValueIS5_EEEEEEPS9_EclB8ne200100Ev, symObjAddr: 0x144D0, symBinAddr: 0x100019984, symSize: 0x114 }
  - { offset: 0x36E82, size: 0x8, addend: 0x0, symName: __ZNSt3__114__split_bufferINS_4pairIN8QStrings7QStringIcLm52EEEN4Pika8STLValueIS4_EEEERNS_9allocatorIS8_EEE17__destruct_at_endB8ne200100EPS8_, symObjAddr: 0x1468C, symBinAddr: 0x100019B40, symSize: 0xF4 }
  - { offset: 0x37156, size: 0x8, addend: 0x0, symName: __ZNK4Pika6ScriptI19QuickerScriptConfigE5Frame12resolveFrameERKN8QStrings7QStringIcLm52EEE, symObjAddr: 0x1DAAC, symBinAddr: 0x100022F60, symSize: 0x52C }
  - { offset: 0x37562, size: 0x8, addend: 0x0, symName: __ZN4Pika6ScriptI19QuickerScriptConfigE3lib9characterEd, symObjAddr: 0x14EFC, symBinAddr: 0x10001A3B0, symSize: 0x4B4 }
  - { offset: 0x37814, size: 0x8, addend: 0x0, symName: __ZN4Pika6ScriptI19QuickerScriptConfigE3lib7deleterERKNS2_5FrameE, symObjAddr: 0x153B0, symBinAddr: 0x10001A864, symSize: 0x378 }
  - { offset: 0x37B14, size: 0x8, addend: 0x0, symName: __ZNK4Pika6ScriptI19QuickerScriptConfigE5Frame3getERKN8QStrings7QStringIcLm52EEEb, symObjAddr: 0x24338, symBinAddr: 0x1000297EC, symSize: 0x8B4 }
  - { offset: 0x37F93, size: 0x8, addend: 0x0, symName: __ZNK4Pika6ScriptI19QuickerScriptConfigE5Frame11getPreviousEv, symObjAddr: 0x258E0, symBinAddr: 0x10002AD94, symSize: 0xAC }
  - { offset: 0x37FCF, size: 0x8, addend: 0x0, symName: __ZN4Pika6ScriptI19QuickerScriptConfigE3lib6existsERKNS2_5FrameE, symObjAddr: 0x15728, symBinAddr: 0x10001ABDC, symSize: 0x41C }
  - { offset: 0x38412, size: 0x8, addend: 0x0, symName: __ZN4Pika6ScriptI19QuickerScriptConfigE3lib7elevateERNS2_5FrameE, symObjAddr: 0x15B44, symBinAddr: 0x10001AFF8, symSize: 0x26C }
  - { offset: 0x386F8, size: 0x8, addend: 0x0, symName: __ZN4Pika6ScriptI19QuickerScriptConfigE16getThisAndMethodERNS2_5FrameE, symObjAddr: 0x26634, symBinAddr: 0x10002BAE8, symSize: 0x824 }
  - { offset: 0x38EE4, size: 0x8, addend: 0x0, symName: __ZN4Pika6ScriptI19QuickerScriptConfigE5Frame7executeERKN8QStrings7QStringIcLm52EEE, symObjAddr: 0x25A28, symBinAddr: 0x10002AEDC, symSize: 0xC0C }
  - { offset: 0x39778, size: 0x8, addend: 0x0, symName: __ZN4Pika6ScriptI19QuickerScriptConfigE3lib8evaluateERKNS2_5FrameE, symObjAddr: 0x15DB0, symBinAddr: 0x10001B264, symSize: 0x4F4 }
  - { offset: 0x39DC1, size: 0x8, addend: 0x0, symName: __ZNK4Pika6ScriptI19QuickerScriptConfigE5Frame11getOptionalERKN8QStrings7QStringIcLm52EEERKNS_8STLValueIS6_EE, symObjAddr: 0x27190, symBinAddr: 0x10002C644, symSize: 0x440 }
  - { offset: 0x3A0F2, size: 0x8, addend: 0x0, symName: __ZN4Pika6ScriptI19QuickerScriptConfigE3lib4findERKN8QStrings7QStringIcLm52EEES8_, symObjAddr: 0x162A4, symBinAddr: 0x10001B758, symSize: 0x14C }
  - { offset: 0x3A2E3, size: 0x8, addend: 0x0, symName: __ZN4Pika6ScriptI19QuickerScriptConfigE3lib7foreachERNS2_5FrameE, symObjAddr: 0x163F0, symBinAddr: 0x10001B8A4, symSize: 0x998 }
  - { offset: 0x3B0B5, size: 0x8, addend: 0x0, symName: __ZNK4Pika8STLValueIN8QStrings7QStringIcLm52EEEEixERKS4_, symObjAddr: 0x28284, symBinAddr: 0x10002D738, symSize: 0xB10 }
  - { offset: 0x3B67A, size: 0x8, addend: 0x0, symName: __ZNK4Pika6ScriptI19QuickerScriptConfigE5Frame9referenceERKN8QStrings7QStringIcLm52EEE, symObjAddr: 0x26E58, symBinAddr: 0x10002C30C, symSize: 0x29C }
  - { offset: 0x3B881, size: 0x8, addend: 0x0, symName: __ZNSt3__16vectorINS_4pairIN8QStrings7QStringIcLm52EEEN4Pika8STLValueIS4_EEEENS_9allocatorIS8_EEE16__destroy_vectorclB8ne200100Ev, symObjAddr: 0x29ABC, symBinAddr: 0x10002EF70, symSize: 0x148 }
  - { offset: 0x3BA75, size: 0x8, addend: 0x0, symName: __ZN4Pika6ScriptI19QuickerScriptConfigE3lib5inputERKN8QStrings7QStringIcLm52EEE, symObjAddr: 0x16D88, symBinAddr: 0x10001C23C, symSize: 0x878 }
  - { offset: 0x3C651, size: 0x8, addend: 0x0, symName: __ZN4Pika6ScriptI19QuickerScriptConfigE3lib6invokeERNS2_5FrameE, symObjAddr: 0x17600, symBinAddr: 0x10001CAB4, symSize: 0xF64 }
  - { offset: 0x3DC59, size: 0x8, addend: 0x0, symName: __ZNK4Pika8STLValueIN8QStrings7QStringIcLm52EEEEcvlEv, symObjAddr: 0x2B2A8, symBinAddr: 0x10003075C, symSize: 0x5BC }
  - { offset: 0x3DFA6, size: 0x8, addend: 0x0, symName: __ZNK4Pika8STLValueIN8QStrings7QStringIcLm52EEEEixIS3_EEKS4_RKT_, symObjAddr: 0x2B864, symBinAddr: 0x100030D18, symSize: 0x120 }
  - { offset: 0x3E149, size: 0x8, addend: 0x0, symName: __ZNSt3__16vectorIN4Pika8STLValueIN8QStrings7QStringIcLm52EEEEENS_9allocatorIS6_EEEC2B8ne200100Em, symObjAddr: 0x2C1F4, symBinAddr: 0x1000316A8, symSize: 0xF0 }
  - { offset: 0x3E28D, size: 0x8, addend: 0x0, symName: __ZNK4Pika8STLValueIN8QStrings7QStringIcLm52EEEEixIlEEKS4_RKT_, symObjAddr: 0x2B984, symBinAddr: 0x100030E38, symSize: 0x1FC }
  - { offset: 0x3E3BC, size: 0x8, addend: 0x0, symName: __ZNSt3__16vectorIN4Pika8STLValueIN8QStrings7QStringIcLm52EEEEENS_9allocatorIS6_EEE16__destroy_vectorclB8ne200100Ev, symObjAddr: 0x2C994, symBinAddr: 0x100031E48, symSize: 0xF8 }
  - { offset: 0x3E485, size: 0x8, addend: 0x0, symName: __ZN4Pika6ScriptI19QuickerScriptConfigE3lib6lengthERKN8QStrings7QStringIcLm52EEE, symObjAddr: 0x18564, symBinAddr: 0x10001DA18, symSize: 0x48 }
  - { offset: 0x3E4C1, size: 0x8, addend: 0x0, symName: __ZN4Pika6ScriptI19QuickerScriptConfigE3lib4loadERKN8QStrings7QStringIcLm52EEE, symObjAddr: 0x185AC, symBinAddr: 0x10001DA60, symSize: 0xC64 }
  - { offset: 0x3EFE1, size: 0x8, addend: 0x0, symName: __ZN4Pika6ScriptI19QuickerScriptConfigE3lib5lowerEN8QStrings7QStringIcLm52EEE, symObjAddr: 0x19210, symBinAddr: 0x10001E6C4, symSize: 0x3F8 }
  - { offset: 0x3F268, size: 0x8, addend: 0x0, symName: __ZN4Pika6ScriptI19QuickerScriptConfigE3lib8mismatchERKN8QStrings7QStringIcLm52EEES8_, symObjAddr: 0x19608, symBinAddr: 0x10001EABC, symSize: 0x214 }
  - { offset: 0x3F560, size: 0x8, addend: 0x0, symName: __ZN4Pika6ScriptI19QuickerScriptConfigE3lib7ordinalERKN8QStrings7QStringIcLm52EEE, symObjAddr: 0x1981C, symBinAddr: 0x10001ECD0, symSize: 0x458 }
  - { offset: 0x3F77B, size: 0x8, addend: 0x0, symName: __ZN4Pika6ScriptI19QuickerScriptConfigE3lib5parseERNS2_5FrameE, symObjAddr: 0x19C74, symBinAddr: 0x10001F128, symSize: 0x4DC }
  - { offset: 0x3FC2D, size: 0x8, addend: 0x0, symName: __ZNK4Pika8STLValueIN8QStrings7QStringIcLm52EEEEcvbEv, symObjAddr: 0x2EFDC, symBinAddr: 0x100034490, symSize: 0x834 }
  - { offset: 0x402B0, size: 0x8, addend: 0x0, symName: __ZN4Pika6ScriptI19QuickerScriptConfigE5Frame5parseERKN8QStrings7QStringIcLm52EE9_iteratorIKcKS6_EESC_b, symObjAddr: 0x2E698, symBinAddr: 0x100033B4C, symSize: 0x944 }
  - { offset: 0x40703, size: 0x8, addend: 0x0, symName: __ZN4Pika6ScriptI19QuickerScriptConfigE3lib9precisionERKNS2_5FrameE, symObjAddr: 0x1A150, symBinAddr: 0x10001F604, symSize: 0x438 }
  - { offset: 0x40B1A, size: 0x8, addend: 0x0, symName: __ZNK4Pika8STLValueIN8QStrings7QStringIcLm52EEEEcvdEv, symObjAddr: 0x20FB0, symBinAddr: 0x100026464, symSize: 0x4E4 }
  - { offset: 0x40DB0, size: 0x8, addend: 0x0, symName: __ZN4Pika6ScriptI19QuickerScriptConfigE3lib5printERKN8QStrings7QStringIcLm52EEE, symObjAddr: 0x1A588, symBinAddr: 0x10001FA3C, symSize: 0x424 }
  - { offset: 0x4126F, size: 0x8, addend: 0x0, symName: __ZN4Pika6ScriptI19QuickerScriptConfigE3lib5radixERKNS2_5FrameE, symObjAddr: 0x1A9AC, symBinAddr: 0x10001FE60, symSize: 0xC00 }
  - { offset: 0x41EFC, size: 0x8, addend: 0x0, symName: __ZN4Pika6ScriptI19QuickerScriptConfigE3lib6randomEd, symObjAddr: 0x1B5AC, symBinAddr: 0x100020A60, symSize: 0x44 }
  - { offset: 0x41F3B, size: 0x8, addend: 0x0, symName: __ZN4Pika6ScriptI19QuickerScriptConfigE3lib7reverseEN8QStrings7QStringIcLm52EEE, symObjAddr: 0x1B5F0, symBinAddr: 0x100020AA4, symSize: 0x1A0 }
  - { offset: 0x42102, size: 0x8, addend: 0x0, symName: __ZN4Pika6ScriptI19QuickerScriptConfigE3lib4saveERKN8QStrings7QStringIcLm52EEES8_, symObjAddr: 0x1B790, symBinAddr: 0x100020C44, symSize: 0xA78 }
  - { offset: 0x4293D, size: 0x8, addend: 0x0, symName: __ZNSt3__114basic_ofstreamIcNS_11char_traitsIcEEEC1EPKcj, symObjAddr: 0x4C660, symBinAddr: 0x100051B14, symSize: 0x398 }
  - { offset: 0x42A43, size: 0x8, addend: 0x0, symName: __ZNSt3__114basic_ofstreamIcNS_11char_traitsIcEEED1Ev, symObjAddr: 0x4C9F8, symBinAddr: 0x100051EAC, symSize: 0x194 }
  - { offset: 0x42A85, size: 0x8, addend: 0x0, symName: __ZN4Pika6ScriptI19QuickerScriptConfigE3lib6searchERKN8QStrings7QStringIcLm52EEES8_, symObjAddr: 0x1C208, symBinAddr: 0x1000216BC, symSize: 0x164 }
  - { offset: 0x42BCE, size: 0x8, addend: 0x0, symName: __ZN4Pika6ScriptI19QuickerScriptConfigE3lib4spanERKN8QStrings7QStringIcLm52EEES8_, symObjAddr: 0x1C36C, symBinAddr: 0x100021820, symSize: 0x264 }
  - { offset: 0x42D99, size: 0x8, addend: 0x0, symName: __ZN4Pika6ScriptI19QuickerScriptConfigE3lib6systemERKN8QStrings7QStringIcLm52EEE, symObjAddr: 0x1C5D0, symBinAddr: 0x100021A84, symSize: 0x5A0 }
  - { offset: 0x43308, size: 0x8, addend: 0x0, symName: __ZN4Pika6ScriptI19QuickerScriptConfigE3lib4timeERKNS2_5FrameE, symObjAddr: 0x1CB70, symBinAddr: 0x100022024, symSize: 0x3C }
  - { offset: 0x43372, size: 0x8, addend: 0x0, symName: __ZN4Pika8STLValueIN8QStrings7QStringIcLm52EEEEC2Ed, symObjAddr: 0x22BC4, symBinAddr: 0x100028078, symSize: 0x200 }
  - { offset: 0x4342F, size: 0x8, addend: 0x0, symName: __ZN4Pika6ScriptI19QuickerScriptConfigE3lib7throwerERKN8QStrings7QStringIcLm52EEE, symObjAddr: 0x1CBAC, symBinAddr: 0x100022060, symSize: 0x84 }
  - { offset: 0x4347E, size: 0x8, addend: 0x0, symName: __ZN4Pika6ScriptI19QuickerScriptConfigE3lib5traceERKNS2_5FrameE, symObjAddr: 0x1CC30, symBinAddr: 0x1000220E4, symSize: 0x4F0 }
  - { offset: 0x4399C, size: 0x8, addend: 0x0, symName: __ZN4Pika6ScriptI19QuickerScriptConfigE3lib5tryerERNS2_5FrameE, symObjAddr: 0x1D120, symBinAddr: 0x1000225D4, symSize: 0x594 }
  - { offset: 0x43DC6, size: 0x8, addend: 0x0, symName: __ZN4Pika6ScriptI19QuickerScriptConfigE3lib5upperEN8QStrings7QStringIcLm52EEE, symObjAddr: 0x1D6B4, symBinAddr: 0x100022B68, symSize: 0x3F8 }
  - { offset: 0x4408B, size: 0x8, addend: 0x0, symName: __ZNK4Pika6ScriptI19QuickerScriptConfigE5Frame12resolveFrameERN8QStrings7QStringIcLm52EE9_iteratorIKcKS6_EERKSA_, symObjAddr: 0x1DFD8, symBinAddr: 0x10002348C, symSize: 0x10C4 }
  - { offset: 0x44A20, size: 0x8, addend: 0x0, symName: __ZNK8QStrings7QStringIcLm52EE9_iteratorIKcKS1_EdeEv, symObjAddr: 0x1F190, symBinAddr: 0x100024644, symSize: 0x108 }
  - { offset: 0x44A7A, size: 0x8, addend: 0x0, symName: __ZNK8QStrings7QStringIcLm52EE9_iteratorIKcKS1_EltIS3_S4_EEbRKNS2_IT_T0_EE, symObjAddr: 0x1F09C, symBinAddr: 0x100024550, symSize: 0xF4 }
  - { offset: 0x44ABA, size: 0x8, addend: 0x0, symName: __ZNK8QStrings7QStringIcLm52EE9_iteratorIKcKS1_EgeIS3_S4_EEbRKNS2_IT_T0_EE, symObjAddr: 0x1F298, symBinAddr: 0x10002474C, symSize: 0xF4 }
  - { offset: 0x44AFA, size: 0x8, addend: 0x0, symName: __ZNK8QStrings7QStringIcLm52EEplERKS1_, symObjAddr: 0x1FFD8, symBinAddr: 0x10002548C, symSize: 0x1D4 }
  - { offset: 0x44B8E, size: 0x8, addend: 0x0, symName: __ZNK8QStrings7QStringIcLm52EE6concatEPKcm, symObjAddr: 0x201AC, symBinAddr: 0x100025660, symSize: 0x258 }
  - { offset: 0x44D3A, size: 0x8, addend: 0x0, symName: __ZN4Pika6ScriptI19QuickerScriptConfigE12UnaryFunctorINSt3__125pointer_to_unary_functionIddEEddE8pikaCallERNS2_5FrameE, symObjAddr: 0x20B10, symBinAddr: 0x100025FC4, symSize: 0x24C }
  - { offset: 0x44ECD, size: 0x8, addend: 0x0, symName: __ZN4Pika6ScriptI19QuickerScriptConfigE12UnaryFunctorINSt3__125pointer_to_unary_functionIddEEddE3argINS_4DumbIdEEEEKNS_8STLValueIN8QStrings7QStringIcLm52EEEEERNS2_5FrameERKT_, symObjAddr: 0x20D84, symBinAddr: 0x100026238, symSize: 0x22C }
  - { offset: 0x45031, size: 0x8, addend: 0x0, symName: __ZN4Pika6ScriptI19QuickerScriptConfigE12UnaryFunctorINSt3__125pointer_to_unary_functionIddEEddED1Ev, symObjAddr: 0x20D5C, symBinAddr: 0x100026210, symSize: 0x14 }
  - { offset: 0x4505D, size: 0x8, addend: 0x0, symName: __ZN4Pika6ScriptI19QuickerScriptConfigE12UnaryFunctorINSt3__125pointer_to_unary_functionIddEEddED0Ev, symObjAddr: 0x20D70, symBinAddr: 0x100026224, symSize: 0x14 }
  - { offset: 0x45169, size: 0x8, addend: 0x0, symName: __ZNK8QStrings7QStringIcLm52EE9_iteratorIKcKS1_EixEl, symObjAddr: 0x2244C, symBinAddr: 0x100027900, symSize: 0x104 }
  - { offset: 0x4525C, size: 0x8, addend: 0x0, symName: __ZN4Pika6ScriptI19QuickerScriptConfigE13BinaryFunctorINSt3__126pointer_to_binary_functionIdddEEdddE8pikaCallERNS2_5FrameE, symObjAddr: 0x24BEC, symBinAddr: 0x10002A0A0, symSize: 0x3AC }
  - { offset: 0x45616, size: 0x8, addend: 0x0, symName: __ZN4Pika6ScriptI19QuickerScriptConfigE13BinaryFunctorINSt3__126pointer_to_binary_functionIdddEEdddE4callINS_4DumbIdEEEENS_8STLValueIN8QStrings7QStringIcLm52EEEEERKSF_SH_RKT_, symObjAddr: 0x24FC0, symBinAddr: 0x10002A474, symSize: 0x9C }
  - { offset: 0x45706, size: 0x8, addend: 0x0, symName: __ZN4Pika6ScriptI19QuickerScriptConfigE13BinaryFunctorINSt3__126pointer_to_binary_functionIdddEEdddED1Ev, symObjAddr: 0x24F98, symBinAddr: 0x10002A44C, symSize: 0x14 }
  - { offset: 0x45732, size: 0x8, addend: 0x0, symName: __ZN4Pika6ScriptI19QuickerScriptConfigE13BinaryFunctorINSt3__126pointer_to_binary_functionIdddEEdddED0Ev, symObjAddr: 0x24FAC, symBinAddr: 0x10002A460, symSize: 0x14 }
  - { offset: 0x457A5, size: 0x8, addend: 0x0, symName: __ZN4Pika6ScriptI19QuickerScriptConfigE12UnaryFunctorINSt3__125pointer_to_unary_functionIdN8QStrings7QStringIcLm52EEEEEdS8_E8pikaCallERNS2_5FrameE, symObjAddr: 0x2505C, symBinAddr: 0x10002A510, symSize: 0x1F0 }
  - { offset: 0x458CE, size: 0x8, addend: 0x0, symName: __ZN4Pika6ScriptI19QuickerScriptConfigE12UnaryFunctorINSt3__125pointer_to_unary_functionIdN8QStrings7QStringIcLm52EEEEEdS8_E3argINS_4DumbIdEEEEKNS_8STLValueIS8_EERNS2_5FrameERKT_, symObjAddr: 0x254AC, symBinAddr: 0x10002A960, symSize: 0x22C }
  - { offset: 0x45A3D, size: 0x8, addend: 0x0, symName: __ZN4Pika6ScriptI19QuickerScriptConfigE12UnaryFunctorINSt3__125pointer_to_unary_functionIdN8QStrings7QStringIcLm52EEEEEdS8_E4callIKNS_8STLValueIS8_EES8_EESD_RT_RKNS_4DumbIT0_EE, symObjAddr: 0x25274, symBinAddr: 0x10002A728, symSize: 0x238 }
  - { offset: 0x45B64, size: 0x8, addend: 0x0, symName: __ZN4Pika6ScriptI19QuickerScriptConfigE12UnaryFunctorINSt3__125pointer_to_unary_functionIdN8QStrings7QStringIcLm52EEEEEdS8_ED1Ev, symObjAddr: 0x2524C, symBinAddr: 0x10002A700, symSize: 0x14 }
  - { offset: 0x45B90, size: 0x8, addend: 0x0, symName: __ZN4Pika6ScriptI19QuickerScriptConfigE12UnaryFunctorINSt3__125pointer_to_unary_functionIdN8QStrings7QStringIcLm52EEEEEdS8_ED0Ev, symObjAddr: 0x25260, symBinAddr: 0x10002A714, symSize: 0x14 }
  - { offset: 0x45C67, size: 0x8, addend: 0x0, symName: __ZN4Pika6ScriptI19QuickerScriptConfigE12UnaryFunctorINSt3__125pointer_to_unary_functionIRKNS2_5FrameEbEES8_bE8pikaCallERS6_, symObjAddr: 0x256D8, symBinAddr: 0x10002AB8C, symSize: 0x78 }
  - { offset: 0x45D28, size: 0x8, addend: 0x0, symName: __ZN4Pika6ScriptI19QuickerScriptConfigE12UnaryFunctorINSt3__125pointer_to_unary_functionIRKNS2_5FrameEbEES8_bED1Ev, symObjAddr: 0x25750, symBinAddr: 0x10002AC04, symSize: 0x14 }
  - { offset: 0x45D54, size: 0x8, addend: 0x0, symName: __ZN4Pika6ScriptI19QuickerScriptConfigE12UnaryFunctorINSt3__125pointer_to_unary_functionIRKNS2_5FrameEbEES8_bED0Ev, symObjAddr: 0x25764, symBinAddr: 0x10002AC18, symSize: 0x14 }
  - { offset: 0x45E05, size: 0x8, addend: 0x0, symName: __ZN4Pika6ScriptI19QuickerScriptConfigE12UnaryFunctorINSt3__125pointer_to_unary_functionIRNS2_5FrameENS_8STLValueIN8QStrings7QStringIcLm52EEEEEEES7_SC_E8pikaCallES7_, symObjAddr: 0x2598C, symBinAddr: 0x10002AE40, symSize: 0x74 }
  - { offset: 0x45E8F, size: 0x8, addend: 0x0, symName: __ZN4Pika6ScriptI19QuickerScriptConfigE12UnaryFunctorINSt3__125pointer_to_unary_functionIRNS2_5FrameENS_8STLValueIN8QStrings7QStringIcLm52EEEEEEES7_SC_ED1Ev, symObjAddr: 0x25A00, symBinAddr: 0x10002AEB4, symSize: 0x14 }
  - { offset: 0x45EBB, size: 0x8, addend: 0x0, symName: __ZN4Pika6ScriptI19QuickerScriptConfigE12UnaryFunctorINSt3__125pointer_to_unary_functionIRNS2_5FrameENS_8STLValueIN8QStrings7QStringIcLm52EEEEEEES7_SC_ED0Ev, symObjAddr: 0x25A14, symBinAddr: 0x10002AEC8, symSize: 0x14 }
  - { offset: 0x46048, size: 0x8, addend: 0x0, symName: __ZN4Pika6ScriptI19QuickerScriptConfigE12UnaryFunctorINSt3__125pointer_to_unary_functionIRKNS2_5FrameENS_8STLValueIN8QStrings7QStringIcLm52EEEEEEES8_SD_E8pikaCallERS6_, symObjAddr: 0x270F4, symBinAddr: 0x10002C5A8, symSize: 0x74 }
  - { offset: 0x460D2, size: 0x8, addend: 0x0, symName: __ZN4Pika6ScriptI19QuickerScriptConfigE12UnaryFunctorINSt3__125pointer_to_unary_functionIRKNS2_5FrameENS_8STLValueIN8QStrings7QStringIcLm52EEEEEEES8_SD_ED1Ev, symObjAddr: 0x27168, symBinAddr: 0x10002C61C, symSize: 0x14 }
  - { offset: 0x460FE, size: 0x8, addend: 0x0, symName: __ZN4Pika6ScriptI19QuickerScriptConfigE12UnaryFunctorINSt3__125pointer_to_unary_functionIRKNS2_5FrameENS_8STLValueIN8QStrings7QStringIcLm52EEEEEEES8_SD_ED0Ev, symObjAddr: 0x2717C, symBinAddr: 0x10002C630, symSize: 0x14 }
  - { offset: 0x461BE, size: 0x8, addend: 0x0, symName: __ZN4Pika6ScriptI19QuickerScriptConfigE13BinaryFunctorINSt3__126pointer_to_binary_functionIRKN8QStrings7QStringIcLm52EEESA_mEESA_SA_mE8pikaCallERNS2_5FrameE, symObjAddr: 0x275D0, symBinAddr: 0x10002CA84, symSize: 0x3E0 }
  - { offset: 0x465CA, size: 0x8, addend: 0x0, symName: __ZN4Pika6ScriptI19QuickerScriptConfigE13BinaryFunctorINSt3__126pointer_to_binary_functionIRKN8QStrings7QStringIcLm52EEESA_mEESA_SA_mED1Ev, symObjAddr: 0x279B0, symBinAddr: 0x10002CE64, symSize: 0x14 }
  - { offset: 0x465F6, size: 0x8, addend: 0x0, symName: __ZN4Pika6ScriptI19QuickerScriptConfigE13BinaryFunctorINSt3__126pointer_to_binary_functionIRKN8QStrings7QStringIcLm52EEESA_mEESA_SA_mED0Ev, symObjAddr: 0x279C4, symBinAddr: 0x10002CE78, symSize: 0x14 }
  - { offset: 0x46693, size: 0x8, addend: 0x0, symName: __ZN4Pika6ScriptI19QuickerScriptConfigE12UnaryFunctorINSt3__125pointer_to_unary_functionIRNS2_5FrameEvEES7_vE8pikaCallES7_, symObjAddr: 0x2813C, symBinAddr: 0x10002D5F0, symSize: 0x120 }
  - { offset: 0x46768, size: 0x8, addend: 0x0, symName: __ZN4Pika6ScriptI19QuickerScriptConfigE12UnaryFunctorINSt3__125pointer_to_unary_functionIRNS2_5FrameEvEES7_vED1Ev, symObjAddr: 0x2825C, symBinAddr: 0x10002D710, symSize: 0x14 }
  - { offset: 0x46794, size: 0x8, addend: 0x0, symName: __ZN4Pika6ScriptI19QuickerScriptConfigE12UnaryFunctorINSt3__125pointer_to_unary_functionIRNS2_5FrameEvEES7_vED0Ev, symObjAddr: 0x28270, symBinAddr: 0x10002D724, symSize: 0x14 }
  - { offset: 0x468B1, size: 0x8, addend: 0x0, symName: __ZN4Pika8STLValueIN8QStrings7QStringIcLm52EEEEC2El, symObjAddr: 0x298B8, symBinAddr: 0x10002ED6C, symSize: 0x204 }
  - { offset: 0x4699B, size: 0x8, addend: 0x0, symName: __ZNSt3__16vectorINS_4pairIN8QStrings7QStringIcLm52EEEN4Pika8STLValueIS4_EEEENS_9allocatorIS8_EEE22__base_destruct_at_endB8ne200100EPS8_, symObjAddr: 0x29C04, symBinAddr: 0x10002F0B8, symSize: 0xE0 }
  - { offset: 0x46D09, size: 0x8, addend: 0x0, symName: __ZNSt3__112basic_stringIcNS_11char_traitsIcEENS_9allocatorIcEEEC2B8ne200100Emc, symObjAddr: 0x2A970, symBinAddr: 0x10002FE24, symSize: 0x1E4 }
  - { offset: 0x4715D, size: 0x8, addend: 0x0, symName: __ZNSt3__16vectorIN4Pika8STLValueIN8QStrings7QStringIcLm52EEEEENS_9allocatorIS6_EEE11__vallocateB8ne200100Em, symObjAddr: 0x2C2E4, symBinAddr: 0x100031798, symSize: 0x100 }
  - { offset: 0x471E0, size: 0x8, addend: 0x0, symName: __ZNSt3__16vectorIN4Pika8STLValueIN8QStrings7QStringIcLm52EEEEENS_9allocatorIS6_EEE18__construct_at_endEm, symObjAddr: 0x2C3E4, symBinAddr: 0x100031898, symSize: 0x284 }
  - { offset: 0x4739C, size: 0x8, addend: 0x0, symName: __ZNKSt3__16vectorIN4Pika8STLValueIN8QStrings7QStringIcLm52EEEEENS_9allocatorIS6_EEE14__annotate_newB8ne200100Em, symObjAddr: 0x2C700, symBinAddr: 0x100031BB4, symSize: 0xCC }
  - { offset: 0x4746A, size: 0x8, addend: 0x0, symName: __ZNSt3__16vectorIN4Pika8STLValueIN8QStrings7QStringIcLm52EEEEENS_9allocatorIS6_EEE20__throw_length_errorB8ne200100Ev, symObjAddr: 0x2C668, symBinAddr: 0x100031B1C, symSize: 0x18 }
  - { offset: 0x47482, size: 0x8, addend: 0x0, symName: __ZNSt3__119__allocate_at_leastB8ne200100INS_9allocatorIN4Pika8STLValueIN8QStrings7QStringIcLm52EEEEEEEEENS_19__allocation_resultINS_16allocator_traitsIT_E7pointerEEERSB_m, symObjAddr: 0x2C680, symBinAddr: 0x100031B34, symSize: 0x80 }
  - { offset: 0x475B3, size: 0x8, addend: 0x0, symName: __ZNKSt3__16vectorIN4Pika8STLValueIN8QStrings7QStringIcLm52EEEEENS_9allocatorIS6_EEE19__annotate_increaseB8ne200100Em, symObjAddr: 0x2C7CC, symBinAddr: 0x100031C80, symSize: 0xE4 }
  - { offset: 0x4768F, size: 0x8, addend: 0x0, symName: __ZNKSt3__16vectorIN4Pika8STLValueIN8QStrings7QStringIcLm52EEEEENS_9allocatorIS6_EEE17__annotate_shrinkB8ne200100Em, symObjAddr: 0x2C8B0, symBinAddr: 0x100031D64, symSize: 0xE4 }
  - { offset: 0x47848, size: 0x8, addend: 0x0, symName: __ZNSt3__16vectorIN4Pika8STLValueIN8QStrings7QStringIcLm52EEEEENS_9allocatorIS6_EEE5clearB8ne200100Ev, symObjAddr: 0x2CA8C, symBinAddr: 0x100031F40, symSize: 0x110 }
  - { offset: 0x4797E, size: 0x8, addend: 0x0, symName: __ZNKSt3__16vectorIN4Pika8STLValueIN8QStrings7QStringIcLm52EEEEENS_9allocatorIS6_EEE17__annotate_deleteB8ne200100Ev, symObjAddr: 0x2CB9C, symBinAddr: 0x100032050, symSize: 0xE0 }
  - { offset: 0x47B2F, size: 0x8, addend: 0x0, symName: __ZN4Pika6ScriptI19QuickerScriptConfigE12UnaryFunctorINSt3__125pointer_to_unary_functionIRKN8QStrings7QStringIcLm52EEEmEESA_mE8pikaCallERNS2_5FrameE, symObjAddr: 0x2CC7C, symBinAddr: 0x100032130, symSize: 0x224 }
  - { offset: 0x47CB5, size: 0x8, addend: 0x0, symName: __ZN4Pika6ScriptI19QuickerScriptConfigE12UnaryFunctorINSt3__125pointer_to_unary_functionIRKN8QStrings7QStringIcLm52EEEmEESA_mE3argINS_4DumbISA_EEEEKNS_8STLValueIS8_EERNS2_5FrameERKT_, symObjAddr: 0x2CEC8, symBinAddr: 0x10003237C, symSize: 0x22C }
  - { offset: 0x47E19, size: 0x8, addend: 0x0, symName: __ZN4Pika6ScriptI19QuickerScriptConfigE12UnaryFunctorINSt3__125pointer_to_unary_functionIRKN8QStrings7QStringIcLm52EEEmEESA_mED1Ev, symObjAddr: 0x2CEA0, symBinAddr: 0x100032354, symSize: 0x14 }
  - { offset: 0x47E45, size: 0x8, addend: 0x0, symName: __ZN4Pika6ScriptI19QuickerScriptConfigE12UnaryFunctorINSt3__125pointer_to_unary_functionIRKN8QStrings7QStringIcLm52EEEmEESA_mED0Ev, symObjAddr: 0x2CEB4, symBinAddr: 0x100032368, symSize: 0x14 }
  - { offset: 0x47E87, size: 0x8, addend: 0x0, symName: __ZN4Pika6ScriptI19QuickerScriptConfigE12UnaryFunctorINSt3__125pointer_to_unary_functionIN8QStrings7QStringIcLm52EEES8_EES8_S8_E8pikaCallERNS2_5FrameE, symObjAddr: 0x2D0F4, symBinAddr: 0x1000325A8, symSize: 0x1F0 }
  - { offset: 0x47FB0, size: 0x8, addend: 0x0, symName: __ZN4Pika6ScriptI19QuickerScriptConfigE12UnaryFunctorINSt3__125pointer_to_unary_functionIN8QStrings7QStringIcLm52EEES8_EES8_S8_E3argINS_4DumbIS8_EEEEKNS_8STLValueIS8_EERNS2_5FrameERKT_, symObjAddr: 0x2D61C, symBinAddr: 0x100032AD0, symSize: 0x22C }
  - { offset: 0x48114, size: 0x8, addend: 0x0, symName: __ZN4Pika6ScriptI19QuickerScriptConfigE12UnaryFunctorINSt3__125pointer_to_unary_functionIN8QStrings7QStringIcLm52EEES8_EES8_S8_E4callIKNS_8STLValueIS8_EES8_EESD_RT_RKNS_4DumbIT0_EE, symObjAddr: 0x2D30C, symBinAddr: 0x1000327C0, symSize: 0x310 }
  - { offset: 0x4830E, size: 0x8, addend: 0x0, symName: __ZN4Pika6ScriptI19QuickerScriptConfigE12UnaryFunctorINSt3__125pointer_to_unary_functionIN8QStrings7QStringIcLm52EEES8_EES8_S8_ED1Ev, symObjAddr: 0x2D2E4, symBinAddr: 0x100032798, symSize: 0x14 }
  - { offset: 0x4833A, size: 0x8, addend: 0x0, symName: __ZN4Pika6ScriptI19QuickerScriptConfigE12UnaryFunctorINSt3__125pointer_to_unary_functionIN8QStrings7QStringIcLm52EEES8_EES8_S8_ED0Ev, symObjAddr: 0x2D2F8, symBinAddr: 0x1000327AC, symSize: 0x14 }
  - { offset: 0x4837C, size: 0x8, addend: 0x0, symName: __ZNKSt3__125pointer_to_unary_functionIN8QStrings7QStringIcLm52EEES3_EclB8ne200100ES3_, symObjAddr: 0x2D848, symBinAddr: 0x100032CFC, symSize: 0x264 }
  - { offset: 0x4857A, size: 0x8, addend: 0x0, symName: __ZN4Pika6ScriptI19QuickerScriptConfigE12UnaryFunctorINSt3__125pointer_to_unary_functionIRKN8QStrings7QStringIcLm52EEEjEESA_jE8pikaCallERNS2_5FrameE, symObjAddr: 0x2E08C, symBinAddr: 0x100033540, symSize: 0x224 }
  - { offset: 0x486F5, size: 0x8, addend: 0x0, symName: __ZN4Pika6ScriptI19QuickerScriptConfigE12UnaryFunctorINSt3__125pointer_to_unary_functionIRKN8QStrings7QStringIcLm52EEEjEESA_jE3argINS_4DumbISA_EEEEKNS_8STLValueIS8_EERNS2_5FrameERKT_, symObjAddr: 0x2E2D8, symBinAddr: 0x10003378C, symSize: 0x22C }
  - { offset: 0x48859, size: 0x8, addend: 0x0, symName: __ZN4Pika8STLValueIN8QStrings7QStringIcLm52EEEEC2Ej, symObjAddr: 0x2E504, symBinAddr: 0x1000339B8, symSize: 0xF4 }
  - { offset: 0x4893E, size: 0x8, addend: 0x0, symName: __ZN4Pika6ScriptI19QuickerScriptConfigE12UnaryFunctorINSt3__125pointer_to_unary_functionIRKN8QStrings7QStringIcLm52EEEjEESA_jED1Ev, symObjAddr: 0x2E2B0, symBinAddr: 0x100033764, symSize: 0x14 }
  - { offset: 0x4896A, size: 0x8, addend: 0x0, symName: __ZN4Pika6ScriptI19QuickerScriptConfigE12UnaryFunctorINSt3__125pointer_to_unary_functionIRKN8QStrings7QStringIcLm52EEEjEESA_jED0Ev, symObjAddr: 0x2E2C4, symBinAddr: 0x100033778, symSize: 0x14 }
  - { offset: 0x48A10, size: 0x8, addend: 0x0, symName: __ZN4Pika6ScriptI19QuickerScriptConfigE12UnaryFunctorINSt3__125pointer_to_unary_functionIRNS2_5FrameEmEES7_mE8pikaCallES7_, symObjAddr: 0x2E5F8, symBinAddr: 0x100033AAC, symSize: 0x78 }
  - { offset: 0x48ACC, size: 0x8, addend: 0x0, symName: __ZN4Pika6ScriptI19QuickerScriptConfigE12UnaryFunctorINSt3__125pointer_to_unary_functionIRNS2_5FrameEmEES7_mED1Ev, symObjAddr: 0x2E670, symBinAddr: 0x100033B24, symSize: 0x14 }
  - { offset: 0x48AF8, size: 0x8, addend: 0x0, symName: __ZN4Pika6ScriptI19QuickerScriptConfigE12UnaryFunctorINSt3__125pointer_to_unary_functionIRNS2_5FrameEmEES7_mED0Ev, symObjAddr: 0x2E684, symBinAddr: 0x100033B38, symSize: 0x14 }
  - { offset: 0x48B5B, size: 0x8, addend: 0x0, symName: __ZN4Pika6ScriptI19QuickerScriptConfigE5Frame5tokenERN8QStrings7QStringIcLm52EE9_iteratorIKcKS6_EERKSA_PS8_, symObjAddr: 0x2FDDC, symBinAddr: 0x100035290, symSize: 0x740 }
  - { offset: 0x48D31, size: 0x8, addend: 0x0, symName: __ZN4Pika6ScriptI19QuickerScriptConfigE5Frame3preERN8QStrings7QStringIcLm52EE9_iteratorIKcKS6_EERKSA_RNSt3__14pairIbNS_8STLValueIS6_EEEEb, symObjAddr: 0x3051C, symBinAddr: 0x1000359D0, symSize: 0x499C }
  - { offset: 0x4D626, size: 0x8, addend: 0x0, symName: __ZN4Pika6ScriptI19QuickerScriptConfigE5Frame4postERN8QStrings7QStringIcLm52EE9_iteratorIKcKS6_EERKSA_RNSt3__14pairIbNS_8STLValueIS6_EEEEbNS_10PrecedenceE, symObjAddr: 0x35988, symBinAddr: 0x10003AE3C, symSize: 0x4A60 }
  - { offset: 0x51D17, size: 0x8, addend: 0x0, symName: __ZN4Pika6ScriptI19QuickerScriptConfigE5Frame8termExprERN8QStrings7QStringIcLm52EE9_iteratorIKcKS6_EERKSA_RNSt3__14pairIbNS_8STLValueIS6_EEEEbbNS_10PrecedenceEc, symObjAddr: 0x41218, symBinAddr: 0x1000466CC, symSize: 0x7C4 }
  - { offset: 0x5215F, size: 0x8, addend: 0x0, symName: __ZN4Pika6ScriptI19QuickerScriptConfigE5Frame6lvalueERKNSt3__14pairIbNS_8STLValueIN8QStrings7QStringIcLm52EEEEEEE, symObjAddr: 0x40E9C, symBinAddr: 0x100046350, symSize: 0x1E4 }
  - { offset: 0x523C1, size: 0x8, addend: 0x0, symName: __ZN4Pika6ScriptI19QuickerScriptConfigE5Frame12assignableOpIPFlllEEEbRN8QStrings7QStringIcLm52EE9_iteratorIKcKS9_EERKSD_RNSt3__14pairIbNS_8STLValueIS9_EEEEbNS_10PrecedenceEiSN_T_, symObjAddr: 0x3D0F0, symBinAddr: 0x1000425A4, symSize: 0x830 }
  - { offset: 0x52B9E, size: 0x8, addend: 0x0, symName: __ZN4Pika6ScriptI19QuickerScriptConfigE5Frame8addSubOpINSt3__15minusIdEEEEbRN8QStrings7QStringIcLm52EE9_iteratorIKcKSA_EERKSE_RNS5_4pairIbNS_8STLValueISA_EEEEbNS_10PrecedenceERKT_, symObjAddr: 0x3BA9C, symBinAddr: 0x100040F50, symSize: 0x610 }
  - { offset: 0x530D6, size: 0x8, addend: 0x0, symName: __ZN4Pika6ScriptI19QuickerScriptConfigE5Frame5lgtOpINSt3__14lessINS_8STLValueIN8QStrings7QStringIcLm52EEEEEEENS5_10less_equalISB_EEPFmmiEEEbRNSA_9_iteratorIKcKSA_EERKSK_RNS5_4pairIbSB_EEbNS_10PrecedenceERKT_RKT0_T1_, symObjAddr: 0x3EB88, symBinAddr: 0x10004403C, symSize: 0x3F8 }
  - { offset: 0x532DC, size: 0x8, addend: 0x0, symName: __ZN4Pika6ScriptI19QuickerScriptConfigE5Frame8addSubOpINSt3__14plusIdEEEEbRN8QStrings7QStringIcLm52EE9_iteratorIKcKSA_EERKSE_RNS5_4pairIbNS_8STLValueISA_EEEEbNS_10PrecedenceERKT_, symObjAddr: 0x3B48C, symBinAddr: 0x100040940, symSize: 0x610 }
  - { offset: 0x537E8, size: 0x8, addend: 0x0, symName: __ZN4Pika6ScriptI19QuickerScriptConfigE5Frame8binaryOpINSt3__112not_equal_toIN8QStrings7QStringIcLm52EEEEEEEbRNS9_9_iteratorIKcKS9_EERKSE_RNS5_4pairIbNS_8STLValueIS9_EEEEbNS_10PrecedenceEiSN_T_, symObjAddr: 0x3F3A8, symBinAddr: 0x10004485C, symSize: 0x704 }
  - { offset: 0x53EBE, size: 0x8, addend: 0x0, symName: __ZN4Pika6ScriptI19QuickerScriptConfigE5Frame12assignableOpIPFdddEEEbRN8QStrings7QStringIcLm52EE9_iteratorIKcKS9_EERKSD_RNSt3__14pairIbNS_8STLValueIS9_EEEEbNS_10PrecedenceEiSN_T_, symObjAddr: 0x3DAF4, symBinAddr: 0x100042FA8, symSize: 0x838 }
  - { offset: 0x5467F, size: 0x8, addend: 0x0, symName: __ZN4Pika6ScriptI19QuickerScriptConfigE5Frame12assignableOpINSt3__14plusIN8QStrings7QStringIcLm52EEEEEEEbRNS9_9_iteratorIKcKS9_EERKSE_RNS5_4pairIbNS_8STLValueIS9_EEEEbNS_10PrecedenceEiSN_T_, symObjAddr: 0x3C0AC, symBinAddr: 0x100041560, symSize: 0x834 }
  - { offset: 0x54EBC, size: 0x8, addend: 0x0, symName: __ZN4Pika6ScriptI19QuickerScriptConfigE5Frame12assignableOpINSt3__110multipliesIdEEEEbRN8QStrings7QStringIcLm52EE9_iteratorIKcKSA_EERKSE_RNS5_4pairIbNS_8STLValueISA_EEEEbNS_10PrecedenceEiSN_T_, symObjAddr: 0x3C8E0, symBinAddr: 0x100041D94, symSize: 0x810 }
  - { offset: 0x55695, size: 0x8, addend: 0x0, symName: __ZN4Pika6ScriptI19QuickerScriptConfigE5Frame5lgtOpINSt3__17greaterINS_8STLValueIN8QStrings7QStringIcLm52EEEEEEENS5_13greater_equalISB_EEPFmmiEEEbRNSA_9_iteratorIKcKSA_EERKSK_RNS5_4pairIbSB_EEbNS_10PrecedenceERKT_RKT0_T1_, symObjAddr: 0x3EF98, symBinAddr: 0x10004444C, symSize: 0x3F8 }
  - { offset: 0x55895, size: 0x8, addend: 0x0, symName: __ZN4Pika6ScriptI19QuickerScriptConfigE5Frame8binaryOpINSt3__18equal_toIN8QStrings7QStringIcLm52EEEEEEEbRNS9_9_iteratorIKcKS9_EERKSE_RNS5_4pairIbNS_8STLValueIS9_EEEEbNS_10PrecedenceEiSN_T_, symObjAddr: 0x40124, symBinAddr: 0x1000455D8, symSize: 0x704 }
  - { offset: 0x55F6B, size: 0x8, addend: 0x0, symName: __ZN4Pika6ScriptI19QuickerScriptConfigE5Frame12assignableOpIPFmmmEEEbRN8QStrings7QStringIcLm52EE9_iteratorIKcKS9_EERKSD_RNSt3__14pairIbNS_8STLValueIS9_EEEEbNS_10PrecedenceEiSN_T_, symObjAddr: 0x3E340, symBinAddr: 0x1000437F4, symSize: 0x830 }
  - { offset: 0x56761, size: 0x8, addend: 0x0, symName: __ZN4Pika6ScriptI19QuickerScriptConfigE5Frame12assignableOpINSt3__17dividesIdEEEEbRN8QStrings7QStringIcLm52EE9_iteratorIKcKSA_EERKSE_RNS5_4pairIbNS_8STLValueISA_EEEEbNS_10PrecedenceEiSN_T_, symObjAddr: 0x3AC7C, symBinAddr: 0x100040130, symSize: 0x810 }
  - { offset: 0x56F24, size: 0x8, addend: 0x0, symName: __ZN4Pika6ScriptI19QuickerScriptConfigE5Frame8binaryOpINSt3__112not_equal_toINS_8STLValueIN8QStrings7QStringIcLm52EEEEEEEEEbRNSA_9_iteratorIKcKSA_EERKSG_RNS5_4pairIbSB_EEbNS_10PrecedenceEiSN_T_, symObjAddr: 0x3FAAC, symBinAddr: 0x100044F60, symSize: 0x678 }
  - { offset: 0x575A5, size: 0x8, addend: 0x0, symName: __ZN4Pika6ScriptI19QuickerScriptConfigE5Frame8binaryOpINSt3__18equal_toINS_8STLValueIN8QStrings7QStringIcLm52EEEEEEEEEbRNSA_9_iteratorIKcKSA_EERKSG_RNS5_4pairIbSB_EEbNS_10PrecedenceEiSN_T_, symObjAddr: 0x40828, symBinAddr: 0x100045CDC, symSize: 0x674 }
  - { offset: 0x57C5A, size: 0x8, addend: 0x0, symName: __ZN4Pika6ScriptI19QuickerScriptConfigE5Frame8binaryOpINSt3__17dividesIdEEEEbRN8QStrings7QStringIcLm52EE9_iteratorIKcKSA_EERKSE_RNS5_4pairIbNS_8STLValueISA_EEEEbNS_10PrecedenceEiSN_T_, symObjAddr: 0x419DC, symBinAddr: 0x100046E90, symSize: 0x69C }
  - { offset: 0x58319, size: 0x8, addend: 0x0, symName: __ZN4Pika6ScriptI19QuickerScriptConfigE5Frame12assignableOpINSt3__14plusIdEEEEbRN8QStrings7QStringIcLm52EE9_iteratorIKcKSA_EERKSE_RNS5_4pairIbNS_8STLValueISA_EEEEbNS_10PrecedenceEiSN_T_, symObjAddr: 0x42078, symBinAddr: 0x10004752C, symSize: 0x810 }
  - { offset: 0x58B03, size: 0x8, addend: 0x0, symName: __ZN4Pika6ScriptI19QuickerScriptConfigE5Frame12assignableOpINSt3__15minusIdEEEEbRN8QStrings7QStringIcLm52EE9_iteratorIKcKSA_EERKSE_RNS5_4pairIbNS_8STLValueISA_EEEEbNS_10PrecedenceEiSN_T_, symObjAddr: 0x42F24, symBinAddr: 0x1000483D8, symSize: 0x810 }
  - { offset: 0x592ED, size: 0x8, addend: 0x0, symName: __ZN4Pika6ScriptI19QuickerScriptConfigE5Frame8binaryOpINSt3__14plusIN8QStrings7QStringIcLm52EEEEEEEbRNS9_9_iteratorIKcKS9_EERKSE_RNS5_4pairIbNS_8STLValueIS9_EEEEbNS_10PrecedenceEiSN_T_, symObjAddr: 0x43DD0, symBinAddr: 0x100049284, symSize: 0x66C }
  - { offset: 0x59A7A, size: 0x8, addend: 0x0, symName: __ZN4Pika6ScriptI19QuickerScriptConfigE5Frame8binaryOpINSt3__110multipliesIdEEEEbRN8QStrings7QStringIcLm52EE9_iteratorIKcKSA_EERKSE_RNS5_4pairIbNS_8STLValueISA_EEEEbNS_10PrecedenceEiSN_T_, symObjAddr: 0x4443C, symBinAddr: 0x1000498F0, symSize: 0x69C }
  - { offset: 0x5A108, size: 0x8, addend: 0x0, symName: __ZN4Pika6ScriptI19QuickerScriptConfigE5Frame8binaryOpIPFlllEEEbRN8QStrings7QStringIcLm52EE9_iteratorIKcKS9_EERKSD_RNSt3__14pairIbNS_8STLValueIS9_EEEEbNS_10PrecedenceEiSN_T_, symObjAddr: 0x44AD8, symBinAddr: 0x100049F8C, symSize: 0x6E0 }
  - { offset: 0x5A796, size: 0x8, addend: 0x0, symName: __ZN4Pika6ScriptI19QuickerScriptConfigE5Frame6intDivEll, symObjAddr: 0x3D920, symBinAddr: 0x100042DD4, symSize: 0x1D4 }
  - { offset: 0x5A93F, size: 0x8, addend: 0x0, symName: __ZN4Pika6ScriptI19QuickerScriptConfigE5Frame8binaryOpIPFdddEEEbRN8QStrings7QStringIcLm52EE9_iteratorIKcKS9_EERKSD_RNSt3__14pairIbNS_8STLValueIS9_EEEEbNS_10PrecedenceEiSN_T_, symObjAddr: 0x451B8, symBinAddr: 0x10004A66C, symSize: 0x6E0 }
  - { offset: 0x5AFC2, size: 0x8, addend: 0x0, symName: __ZN4Pika6ScriptI19QuickerScriptConfigE5Frame8binaryOpIPFmmmEEEbRN8QStrings7QStringIcLm52EE9_iteratorIKcKS9_EERKSD_RNSt3__14pairIbNS_8STLValueIS9_EEEEbNS_10PrecedenceEiSN_T_, symObjAddr: 0x45898, symBinAddr: 0x10004AD4C, symSize: 0x6E0 }
  - { offset: 0x5B67A, size: 0x8, addend: 0x0, symName: __ZN4Pika6ScriptI19QuickerScriptConfigE5Frame12assignableOpIPFmmiEEEbRN8QStrings7QStringIcLm52EE9_iteratorIKcKS9_EERKSD_RNSt3__14pairIbNS_8STLValueIS9_EEEEbNS_10PrecedenceEiSN_T_, symObjAddr: 0x45F78, symBinAddr: 0x10004B42C, symSize: 0x830 }
  - { offset: 0x5BE66, size: 0x8, addend: 0x0, symName: __ZN4Pika6ScriptI19QuickerScriptConfigE5Frame8binaryOpINSt3__110less_equalINS_8STLValueIN8QStrings7QStringIcLm52EEEEEEEEEbRNSA_9_iteratorIKcKSA_EERKSG_RNS5_4pairIbSB_EEbNS_10PrecedenceEiSN_T_, symObjAddr: 0x467A8, symBinAddr: 0x10004BC5C, symSize: 0x678 }
  - { offset: 0x5C4DD, size: 0x8, addend: 0x0, symName: __ZN4Pika6ScriptI19QuickerScriptConfigE5Frame8binaryOpINSt3__14lessINS_8STLValueIN8QStrings7QStringIcLm52EEEEEEEEEbRNSA_9_iteratorIKcKSA_EERKSG_RNS5_4pairIbSB_EEbNS_10PrecedenceEiSN_T_, symObjAddr: 0x46E20, symBinAddr: 0x10004C2D4, symSize: 0x674 }
  - { offset: 0x5CB61, size: 0x8, addend: 0x0, symName: __ZN4Pika6ScriptI19QuickerScriptConfigE5Frame8binaryOpINSt3__113greater_equalINS_8STLValueIN8QStrings7QStringIcLm52EEEEEEEEEbRNSA_9_iteratorIKcKSA_EERKSG_RNS5_4pairIbSB_EEbNS_10PrecedenceEiSN_T_, symObjAddr: 0x47C30, symBinAddr: 0x10004D0E4, symSize: 0x678 }
  - { offset: 0x5D1D8, size: 0x8, addend: 0x0, symName: __ZN4Pika6ScriptI19QuickerScriptConfigE5Frame8binaryOpINSt3__17greaterINS_8STLValueIN8QStrings7QStringIcLm52EEEEEEEEEbRNSA_9_iteratorIKcKSA_EERKSG_RNS5_4pairIbSB_EEbNS_10PrecedenceEiSN_T_, symObjAddr: 0x482A8, symBinAddr: 0x10004D75C, symSize: 0x674 }
  - { offset: 0x5D8FD, size: 0x8, addend: 0x0, symName: __ZNK4Pika8STLValueIN8QStrings7QStringIcLm52EEEEeqERKS4_, symObjAddr: 0x4891C, symBinAddr: 0x10004DDD0, symSize: 0xB8 }
  - { offset: 0x5DACB, size: 0x8, addend: 0x0, symName: __ZN4Pika6ScriptI19QuickerScriptConfigE5Frame8binaryOpINSt3__14plusIdEEEEbRN8QStrings7QStringIcLm52EE9_iteratorIKcKSA_EERKSE_RNS5_4pairIbNS_8STLValueISA_EEEEbNS_10PrecedenceEiSN_T_, symObjAddr: 0x42888, symBinAddr: 0x100047D3C, symSize: 0x69C }
  - { offset: 0x5E159, size: 0x8, addend: 0x0, symName: __ZN4Pika6ScriptI19QuickerScriptConfigE5Frame8binaryOpINSt3__15minusIdEEEEbRN8QStrings7QStringIcLm52EE9_iteratorIKcKSA_EERKSE_RNS5_4pairIbNS_8STLValueISA_EEEEbNS_10PrecedenceEiSN_T_, symObjAddr: 0x43734, symBinAddr: 0x100048BE8, symSize: 0x69C }
  - { offset: 0x5E7E7, size: 0x8, addend: 0x0, symName: __ZN4Pika6ScriptI19QuickerScriptConfigE5Frame8binaryOpIPFmmiEEEbRN8QStrings7QStringIcLm52EE9_iteratorIKcKS9_EERKSD_RNSt3__14pairIbNS_8STLValueIS9_EEEEbNS_10PrecedenceEiSN_T_, symObjAddr: 0x47494, symBinAddr: 0x10004C948, symSize: 0x6E0 }
  - { offset: 0x5EEF5, size: 0x8, addend: 0x0, symName: __ZNK4Pika8STLValueIN8QStrings7QStringIcLm52EEEEltERKS4_, symObjAddr: 0x47B74, symBinAddr: 0x10004D028, symSize: 0xBC }
  - { offset: 0x5F102, size: 0x8, addend: 0x0, symName: __ZN4Pika6ScriptI19QuickerScriptConfigE12UnaryFunctorINSt3__125pointer_to_unary_functionIRKNS2_5FrameEN8QStrings7QStringIcLm52EEEEES8_SB_E8pikaCallERS6_, symObjAddr: 0x4B72C, symBinAddr: 0x100050BE0, symSize: 0x220 }
  - { offset: 0x5F21D, size: 0x8, addend: 0x0, symName: __ZN4Pika6ScriptI19QuickerScriptConfigE12UnaryFunctorINSt3__125pointer_to_unary_functionIRKNS2_5FrameEN8QStrings7QStringIcLm52EEEEES8_SB_ED1Ev, symObjAddr: 0x4B94C, symBinAddr: 0x100050E00, symSize: 0x14 }
  - { offset: 0x5F249, size: 0x8, addend: 0x0, symName: __ZN4Pika6ScriptI19QuickerScriptConfigE12UnaryFunctorINSt3__125pointer_to_unary_functionIRKNS2_5FrameEN8QStrings7QStringIcLm52EEEEES8_SB_ED0Ev, symObjAddr: 0x4B960, symBinAddr: 0x100050E14, symSize: 0x14 }
  - { offset: 0x5F2E6, size: 0x8, addend: 0x0, symName: __ZN4Pika6ScriptI19QuickerScriptConfigE12UnaryFunctorINSt3__125pointer_to_unary_functionIRKN8QStrings7QStringIcLm52EEEvEESA_vE8pikaCallERNS2_5FrameE, symObjAddr: 0x4B974, symBinAddr: 0x100050E28, symSize: 0x2D0 }
  - { offset: 0x5F487, size: 0x8, addend: 0x0, symName: __ZN4Pika6ScriptI19QuickerScriptConfigE12UnaryFunctorINSt3__125pointer_to_unary_functionIRKN8QStrings7QStringIcLm52EEEvEESA_vE3argINS_4DumbISA_EEEEKNS_8STLValueIS8_EERNS2_5FrameERKT_, symObjAddr: 0x4BC6C, symBinAddr: 0x100051120, symSize: 0x22C }
  - { offset: 0x5F5EB, size: 0x8, addend: 0x0, symName: __ZN4Pika6ScriptI19QuickerScriptConfigE12UnaryFunctorINSt3__125pointer_to_unary_functionIRKN8QStrings7QStringIcLm52EEEvEESA_vED1Ev, symObjAddr: 0x4BC44, symBinAddr: 0x1000510F8, symSize: 0x14 }
  - { offset: 0x5F617, size: 0x8, addend: 0x0, symName: __ZN4Pika6ScriptI19QuickerScriptConfigE12UnaryFunctorINSt3__125pointer_to_unary_functionIRKN8QStrings7QStringIcLm52EEEvEESA_vED0Ev, symObjAddr: 0x4BC58, symBinAddr: 0x10005110C, symSize: 0x14 }
  - { offset: 0x5F6DB, size: 0x8, addend: 0x0, symName: __ZNSt3__18_IterOpsINS_17_ClassicAlgPolicyEE9iter_swapB8ne200100IRN8QStrings7QStringIcLm52EE9_iteratorIcS6_EES9_EEvOT_OT0_, symObjAddr: 0x4BFB0, symBinAddr: 0x100051464, symSize: 0x204 }
  - { offset: 0x5F851, size: 0x8, addend: 0x0, symName: __ZN4Pika6ScriptI19QuickerScriptConfigE13BinaryFunctorINSt3__126pointer_to_binary_functionIRKN8QStrings7QStringIcLm52EEESA_vEESA_SA_vE8pikaCallERNS2_5FrameE, symObjAddr: 0x4C1B4, symBinAddr: 0x100051668, symSize: 0x484 }
  - { offset: 0x5FC83, size: 0x8, addend: 0x0, symName: __ZN4Pika6ScriptI19QuickerScriptConfigE13BinaryFunctorINSt3__126pointer_to_binary_functionIRKN8QStrings7QStringIcLm52EEESA_vEESA_SA_vED1Ev, symObjAddr: 0x4C638, symBinAddr: 0x100051AEC, symSize: 0x14 }
  - { offset: 0x5FCAF, size: 0x8, addend: 0x0, symName: __ZN4Pika6ScriptI19QuickerScriptConfigE13BinaryFunctorINSt3__126pointer_to_binary_functionIRKN8QStrings7QStringIcLm52EEESA_vEESA_SA_vED0Ev, symObjAddr: 0x4C64C, symBinAddr: 0x100051B00, symSize: 0x14 }
  - { offset: 0x5FD8F, size: 0x8, addend: 0x0, symName: __ZN4Pika6ScriptI19QuickerScriptConfigE12UnaryFunctorINSt3__125pointer_to_unary_functionIRKN8QStrings7QStringIcLm52EEEiEESA_iE8pikaCallERNS2_5FrameE, symObjAddr: 0x4D2F4, symBinAddr: 0x1000527A8, symSize: 0x224 }
  - { offset: 0x5FF0A, size: 0x8, addend: 0x0, symName: __ZN4Pika6ScriptI19QuickerScriptConfigE12UnaryFunctorINSt3__125pointer_to_unary_functionIRKN8QStrings7QStringIcLm52EEEiEESA_iE3argINS_4DumbISA_EEEEKNS_8STLValueIS8_EERNS2_5FrameERKT_, symObjAddr: 0x4D540, symBinAddr: 0x1000529F4, symSize: 0x22C }
  - { offset: 0x6006E, size: 0x8, addend: 0x0, symName: __ZN4Pika6ScriptI19QuickerScriptConfigE12UnaryFunctorINSt3__125pointer_to_unary_functionIRKN8QStrings7QStringIcLm52EEEiEESA_iED1Ev, symObjAddr: 0x4D518, symBinAddr: 0x1000529CC, symSize: 0x14 }
  - { offset: 0x6009A, size: 0x8, addend: 0x0, symName: __ZN4Pika6ScriptI19QuickerScriptConfigE12UnaryFunctorINSt3__125pointer_to_unary_functionIRKN8QStrings7QStringIcLm52EEEiEESA_iED0Ev, symObjAddr: 0x4D52C, symBinAddr: 0x1000529E0, symSize: 0x14 }
  - { offset: 0x60137, size: 0x8, addend: 0x0, symName: __ZN4Pika6ScriptI19QuickerScriptConfigE12UnaryFunctorINSt3__125pointer_to_unary_functionIRKNS2_5FrameEvEES8_vE8pikaCallERS6_, symObjAddr: 0x4D76C, symBinAddr: 0x100052C20, symSize: 0x120 }
  - { offset: 0x6020C, size: 0x8, addend: 0x0, symName: __ZN4Pika6ScriptI19QuickerScriptConfigE12UnaryFunctorINSt3__125pointer_to_unary_functionIRKNS2_5FrameEvEES8_vED1Ev, symObjAddr: 0x4D88C, symBinAddr: 0x100052D40, symSize: 0x14 }
  - { offset: 0x60238, size: 0x8, addend: 0x0, symName: __ZN4Pika6ScriptI19QuickerScriptConfigE12UnaryFunctorINSt3__125pointer_to_unary_functionIRKNS2_5FrameEvEES8_vED0Ev, symObjAddr: 0x4D8A0, symBinAddr: 0x100052D54, symSize: 0x14 }
  - { offset: 0x604AC, size: 0x8, addend: 0x0, symName: __ZNSt3__16__treeINS_12__value_typeIKN8QStrings7QStringIcLm52EEEPN4Pika6ScriptI19QuickerScriptConfigE6NativeEEENS_19__map_value_compareIS5_SC_NS_4lessIS5_EELb1EEENS_9allocatorISC_EEE12__find_equalIS4_EERPNS_16__tree_node_baseIPvEERPNS_15__tree_end_nodeISO_EERKT_, symObjAddr: 0x4E488, symBinAddr: 0x10005393C, symSize: 0x180 }
  - { offset: 0x605F2, size: 0x8, addend: 0x0, symName: __ZNSt3__16__treeINS_12__value_typeIKN8QStrings7QStringIcLm52EEEPN4Pika6ScriptI19QuickerScriptConfigE6NativeEEENS_19__map_value_compareIS5_SC_NS_4lessIS5_EELb1EEENS_9allocatorISC_EEE16__insert_node_atEPNS_15__tree_end_nodeIPNS_16__tree_node_baseIPvEEEERSO_SO_, symObjAddr: 0x4E608, symBinAddr: 0x100053ABC, symSize: 0x15C }
  - { offset: 0x606DC, size: 0x8, addend: 0x0, symName: __ZN4Pika9ExceptionIN8QStrings7QStringIcLm52EEEED0Ev, symObjAddr: 0x4E954, symBinAddr: 0x100053E08, symSize: 0x24 }
  - { offset: 0x60744, size: 0x8, addend: 0x0, symName: __ZNK4Pika9ExceptionIN8QStrings7QStringIcLm52EEEE4whatEv, symObjAddr: 0x4E978, symBinAddr: 0x100053E2C, symSize: 0x2D0 }
  - { offset: 0x6091C, size: 0x8, addend: 0x0, symName: __ZNK4Pika9ExceptionIN8QStrings7QStringIcLm52EEEE8getErrorEv, symObjAddr: 0x4EC48, symBinAddr: 0x1000540FC, symSize: 0x118 }
  - { offset: 0x609C9, size: 0x8, addend: 0x0, symName: __ZNSt3__112basic_stringIcNS_11char_traitsIcEENS_9allocatorIcEEE16__init_with_sizeB8ne200100IN8QStrings7QStringIcLm52EE9_iteratorIKcKS9_EESD_EEvT_T0_m, symObjAddr: 0x4EF10, symBinAddr: 0x1000543C4, symSize: 0x2AC }
  - { offset: 0x60CDC, size: 0x8, addend: 0x0, symName: __ZNSt3__112basic_stringIcNS_11char_traitsIcEENS_9allocatorIcEEE28__copy_non_overlapping_rangeB8ne200100IN8QStrings7QStringIcLm52EE9_iteratorIKcKS9_EESD_EEPcT_T0_SE_, symObjAddr: 0x4F1BC, symBinAddr: 0x100054670, symSize: 0x1A8 }
  - { offset: 0x60E52, size: 0x8, addend: 0x0, symName: __ZN4Pika6ScriptI19QuickerScriptConfigE12UnaryFunctorINSt3__125pointer_to_unary_functionIRKN8QStrings7QStringIcLm52EEES8_EESA_S8_E8pikaCallERNS2_5FrameE, symObjAddr: 0x4F83C, symBinAddr: 0x100054CF0, symSize: 0x2D8 }
  - { offset: 0x6102E, size: 0x8, addend: 0x0, symName: __ZN4Pika6ScriptI19QuickerScriptConfigE12UnaryFunctorINSt3__125pointer_to_unary_functionIRKN8QStrings7QStringIcLm52EEES8_EESA_S8_E3argINS_4DumbISA_EEEEKNS_8STLValueIS8_EERNS2_5FrameERKT_, symObjAddr: 0x4FB3C, symBinAddr: 0x100054FF0, symSize: 0x22C }
  - { offset: 0x61192, size: 0x8, addend: 0x0, symName: __ZN4Pika6ScriptI19QuickerScriptConfigE12UnaryFunctorINSt3__125pointer_to_unary_functionIRKN8QStrings7QStringIcLm52EEES8_EESA_S8_ED1Ev, symObjAddr: 0x4FB14, symBinAddr: 0x100054FC8, symSize: 0x14 }
  - { offset: 0x611BE, size: 0x8, addend: 0x0, symName: __ZN4Pika6ScriptI19QuickerScriptConfigE12UnaryFunctorINSt3__125pointer_to_unary_functionIRKN8QStrings7QStringIcLm52EEES8_EESA_S8_ED0Ev, symObjAddr: 0x4FB28, symBinAddr: 0x100054FDC, symSize: 0x14 }
  - { offset: 0x61313, size: 0x8, addend: 0x0, symName: __GLOBAL__sub_I_PikaCmd.cpp, symObjAddr: 0x50858, symBinAddr: 0x100055D0C, symSize: 0x1658 }
  - { offset: 0x658D9, size: 0x8, addend: 0x0, symName: _.str, symObjAddr: 0x80, symBinAddr: 0x1000E2E40, symSize: 0x0 }
  - { offset: 0x6590E, size: 0x8, addend: 0x0, symName: _BUILT_IN_DEBUG, symObjAddr: 0x1A5C0, symBinAddr: 0x10011CAA0, symSize: 0x0 }
  - { offset: 0x65926, size: 0x8, addend: 0x0, symName: _.str.1, symObjAddr: 0x2A80, symBinAddr: 0x1000E5840, symSize: 0x0 }
  - { offset: 0x6594A, size: 0x8, addend: 0x0, symName: _BUILT_IN_HELP, symObjAddr: 0x1A5E0, symBinAddr: 0x10011CAC0, symSize: 0x0 }
  - { offset: 0x6595D, size: 0x8, addend: 0x0, symName: _.str.2, symObjAddr: 0x15580, symBinAddr: 0x1000F8340, symSize: 0x0 }
  - { offset: 0x65981, size: 0x8, addend: 0x0, symName: _BUILT_IN_INTERACTIVE, symObjAddr: 0x1A600, symBinAddr: 0x10011CAE0, symSize: 0x0 }
  - { offset: 0x65994, size: 0x8, addend: 0x0, symName: _.str.3, symObjAddr: 0x16900, symBinAddr: 0x1000F96C0, symSize: 0x0 }
  - { offset: 0x659B8, size: 0x8, addend: 0x0, symName: _BUILT_IN_STDLIB, symObjAddr: 0x1A620, symBinAddr: 0x10011CB00, symSize: 0x0 }
  - { offset: 0x659FE, size: 0x8, addend: 0x0, symName: _.str, symObjAddr: 0x531C0, symBinAddr: 0x1000FD380, symSize: 0x0 }
  - { offset: 0x65A30, size: 0x8, addend: 0x0, symName: _.str.1, symObjAddr: 0x531E0, symBinAddr: 0x1000FD3A0, symSize: 0x0 }
  - { offset: 0x65A4F, size: 0x8, addend: 0x0, symName: ___func__._ZNK4Pika6ScriptINS_9StdConfigEE5Frame11getPreviousEv, symObjAddr: 0x53200, symBinAddr: 0x1000FD3C0, symSize: 0x0 }
  - { offset: 0x65A6E, size: 0x8, addend: 0x0, symName: _.str.2, symObjAddr: 0x53220, symBinAddr: 0x1000FD3E0, symSize: 0x0 }
  - { offset: 0x65A81, size: 0x8, addend: 0x0, symName: _.str.3, symObjAddr: 0x53240, symBinAddr: 0x1000FD400, symSize: 0x0 }
  - { offset: 0x65AA0, size: 0x8, addend: 0x0, symName: _.str.4, symObjAddr: 0x53260, symBinAddr: 0x1000FD420, symSize: 0x0 }
  - { offset: 0x65AB3, size: 0x8, addend: 0x0, symName: _.str.5, symObjAddr: 0x53280, symBinAddr: 0x1000FD440, symSize: 0x0 }
  - { offset: 0x65AD2, size: 0x8, addend: 0x0, symName: ___func__._ZN4Pika6ScriptINS_9StdConfigEE5Frame4callERKNSt3__112basic_stringIcNS4_11char_traitsIcEENS4_9allocatorIcEEEERKNS_8STLValueISA_EElPSF_, symObjAddr: 0x532A0, symBinAddr: 0x1000FD460, symSize: 0x0 }
  - { offset: 0x65AF1, size: 0x8, addend: 0x0, symName: _.str.6, symObjAddr: 0x532C0, symBinAddr: 0x1000FD480, symSize: 0x0 }
  - { offset: 0x65B10, size: 0x8, addend: 0x0, symName: _.str.7, symObjAddr: 0x53300, symBinAddr: 0x1000FD4C0, symSize: 0x0 }
  - { offset: 0x65B2F, size: 0x8, addend: 0x0, symName: _.str.8, symObjAddr: 0x53320, symBinAddr: 0x1000FD4E0, symSize: 0x0 }
  - { offset: 0x65B42, size: 0x8, addend: 0x0, symName: _.str.9, symObjAddr: 0x53340, symBinAddr: 0x1000FD500, symSize: 0x0 }
  - { offset: 0x65B61, size: 0x8, addend: 0x0, symName: _.str.10, symObjAddr: 0x53360, symBinAddr: 0x1000FD520, symSize: 0x0 }
  - { offset: 0x65B80, size: 0x8, addend: 0x0, symName: _.str.11, symObjAddr: 0x53380, symBinAddr: 0x1000FD540, symSize: 0x0 }
  - { offset: 0x65B9F, size: 0x8, addend: 0x0, symName: _.str.12, symObjAddr: 0x533C0, symBinAddr: 0x1000FD580, symSize: 0x0 }
  - { offset: 0x65BBE, size: 0x8, addend: 0x0, symName: _.str.13, symObjAddr: 0x53400, symBinAddr: 0x1000FD5C0, symSize: 0x0 }
  - { offset: 0x65BD1, size: 0x8, addend: 0x0, symName: _.str.14, symObjAddr: 0x53420, symBinAddr: 0x1000FD5E0, symSize: 0x0 }
  - { offset: 0x65BE4, size: 0x8, addend: 0x0, symName: ___func__._ZN4Pika6ScriptINS_9StdConfigEE5Frame5parseERKNSt3__111__wrap_iterIPKcEESA_b, symObjAddr: 0x53460, symBinAddr: 0x1000FD620, symSize: 0x0 }
  - { offset: 0x65C03, size: 0x8, addend: 0x0, symName: _.str.15, symObjAddr: 0x53480, symBinAddr: 0x1000FD640, symSize: 0x0 }
  - { offset: 0x65C16, size: 0x8, addend: 0x0, symName: _.str.16, symObjAddr: 0x534A0, symBinAddr: 0x1000FD660, symSize: 0x0 }
  - { offset: 0x65C29, size: 0x8, addend: 0x0, symName: _.str.17, symObjAddr: 0x534C0, symBinAddr: 0x1000FD680, symSize: 0x0 }
  - { offset: 0x65C3C, size: 0x8, addend: 0x0, symName: _.str.18, symObjAddr: 0x534E0, symBinAddr: 0x1000FD6A0, symSize: 0x0 }
  - { offset: 0x65C5B, size: 0x8, addend: 0x0, symName: _.str.19, symObjAddr: 0x53500, symBinAddr: 0x1000FD6C0, symSize: 0x0 }
  - { offset: 0x65C6E, size: 0x8, addend: 0x0, symName: _.str.20, symObjAddr: 0x53520, symBinAddr: 0x1000FD6E0, symSize: 0x0 }
  - { offset: 0x65C8D, size: 0x8, addend: 0x0, symName: _.str.21, symObjAddr: 0x53540, symBinAddr: 0x1000FD700, symSize: 0x0 }
  - { offset: 0x65CAC, size: 0x8, addend: 0x0, symName: _.str.22, symObjAddr: 0x53580, symBinAddr: 0x1000FD740, symSize: 0x0 }
  - { offset: 0x65CBF, size: 0x8, addend: 0x0, symName: _.str.23, symObjAddr: 0x535A0, symBinAddr: 0x1000FD760, symSize: 0x0 }
  - { offset: 0x65CDE, size: 0x8, addend: 0x0, symName: ___func__._ZN4Pika6ScriptINS_9StdConfigEE5Frame5whiteERNSt3__111__wrap_iterIPKcEERKS8_, symObjAddr: 0x535C0, symBinAddr: 0x1000FD780, symSize: 0x0 }
  - { offset: 0x65CF1, size: 0x8, addend: 0x0, symName: _.str.24, symObjAddr: 0x535E0, symBinAddr: 0x1000FD7A0, symSize: 0x0 }
  - { offset: 0x69ADE, size: 0x8, addend: 0x0, symName: __ZN4Pika8unescapeINSt3__112basic_stringIcNS1_11char_traitsIcEENS1_9allocatorIcEEEEEET_RNS8_14const_iteratorERKS9_, symObjAddr: 0x12820, symBinAddr: 0x100068B2C, symSize: 0x1460 }
  - { offset: 0x69B07, size: 0x8, addend: 0x0, symName: __ZZN4Pika8unescapeINSt3__112basic_stringIcNS1_11char_traitsIcEENS1_9allocatorIcEEEEEET_RNS8_14const_iteratorERKS9_E12ESCAPE_CHARS, symObjAddr: 0x5278F, symBinAddr: 0x1000DFB8B, symSize: 0x0 }
  - { offset: 0x69B27, size: 0x8, addend: 0x0, symName: __ZZN4Pika8unescapeINSt3__112basic_stringIcNS1_11char_traitsIcEENS1_9allocatorIcEEEEEET_RNS8_14const_iteratorERKS9_E12ESCAPE_CODES, symObjAddr: 0x52799, symBinAddr: 0x1000DFB95, symSize: 0x0 }
  - { offset: 0x6B495, size: 0x8, addend: 0x0, symName: __ZN4Pika11intToStringINSt3__112basic_stringIcNS1_11char_traitsIcEENS1_9allocatorIcEEEElEET_T0_ii, symObjAddr: 0x6160, symBinAddr: 0x10005C46C, symSize: 0x3A8 }
  - { offset: 0x6B6C4, size: 0x8, addend: 0x0, symName: __ZN4Pika9hexToLongINSt3__112basic_stringIcNS1_11char_traitsIcEENS1_9allocatorIcEEEEEEmRNT_14const_iteratorERKS9_, symObjAddr: 0x1475C, symBinAddr: 0x10006AA68, symSize: 0x330 }
  - { offset: 0x6B820, size: 0x8, addend: 0x0, symName: __ZN4Pika14stringToDoubleINSt3__112basic_stringIcNS1_11char_traitsIcEENS1_9allocatorIcEEEEEEdRNT_14const_iteratorERKS9_, symObjAddr: 0x14A8C, symBinAddr: 0x10006AD98, symSize: 0x888 }
  - { offset: 0x6BDA8, size: 0x8, addend: 0x0, symName: __ZN4Pika12stringToLongINSt3__112basic_stringIcNS1_11char_traitsIcEENS1_9allocatorIcEEEEEElRNT_14const_iteratorERKS9_, symObjAddr: 0x398E4, symBinAddr: 0x10008E0A8, symSize: 0x3FC }
  - { offset: 0x6BF76, size: 0x8, addend: 0x0, symName: __ZN4Pika14stringToDoubleINS_8STLValueINSt3__112basic_stringIcNS2_11char_traitsIcEENS2_9allocatorIcEEEEEEEEbRKT_Rd, symObjAddr: 0x39CE0, symBinAddr: 0x10008E4A4, symSize: 0x154 }
  - { offset: 0x6C1E2, size: 0x8, addend: 0x0, symName: __ZN4Pika14doubleToStringINSt3__112basic_stringIcNS1_11char_traitsIcEENS1_9allocatorIcEEEEEET_di, symObjAddr: 0x29EFC, symBinAddr: 0x10008017C, symSize: 0xDE8 }
  - { offset: 0x6CCE2, size: 0x8, addend: 0x0, symName: __ZN4Pika11intToStringINSt3__112basic_stringIcNS1_11char_traitsIcEENS1_9allocatorIcEEEEiEET_T0_ii, symObjAddr: 0x32D9C, symBinAddr: 0x100088AD4, symSize: 0x394 }
  - { offset: 0x6CE4B, size: 0x8, addend: 0x0, symName: __ZN4Pika11intToStringINSt3__112basic_stringIcNS1_11char_traitsIcEENS1_9allocatorIcEEEEmEET_T0_ii, symObjAddr: 0x33130, symBinAddr: 0x100088E68, symSize: 0x374 }
  - { offset: 0x6CF56, size: 0x8, addend: 0x0, symName: __ZN4Pika14stringToDoubleINS_8STLValueINSt3__112basic_stringIcNS2_11char_traitsIcEENS2_9allocatorIcEEEEEEEEdRNT_14const_iteratorERKSB_, symObjAddr: 0x39E34, symBinAddr: 0x10008E5F8, symSize: 0x888 }
  - { offset: 0x6D4DE, size: 0x8, addend: 0x0, symName: __ZN4Pika12stringToLongINS_8STLValueINSt3__112basic_stringIcNS2_11char_traitsIcEENS2_9allocatorIcEEEEEEEElRNT_14const_iteratorERKSB_, symObjAddr: 0x3A6BC, symBinAddr: 0x10008EE80, symSize: 0x3FC }
  - { offset: 0x79D9F, size: 0x8, addend: 0x0, symName: __ZNSt3__113__search_implB8ne200100INS_11__wrap_iterIPKcEES4_S3_S3_NS_10__equal_toENS_10__identityES6_TnNS_9enable_ifIXaasr37__has_random_access_iterator_categoryIT_EE5valuesr37__has_random_access_iterator_categoryIT1_EE5valueEiE4typeELi0EEENS_4pairIS8_S8_EES8_T0_S9_T2_RT3_RT4_RT5_, symObjAddr: 0x3932C, symBinAddr: 0x10008DAF0, symSize: 0x25C }
  - { offset: 0x7A5B8, size: 0x8, addend: 0x0, symName: __ZNSt3__1plB8ne200100IcNS_11char_traitsIcEENS_9allocatorIcEEEENS_12basic_stringIT_T0_T1_EERKS9_S6_, symObjAddr: 0x43AD0, symBinAddr: 0x100098294, symSize: 0x258 }
  - { offset: 0x7C2E4, size: 0x8, addend: 0x0, symName: __ZNSt3__113__search_implB8ne200100INS_11__wrap_iterIPKcEES4_S4_S4_NS_10__equal_toENS_10__identityES6_TnNS_9enable_ifIXaasr37__has_random_access_iterator_categoryIT_EE5valuesr37__has_random_access_iterator_categoryIT1_EE5valueEiE4typeELi0EEENS_4pairIS8_S8_EES8_T0_S9_T2_RT3_RT4_RT5_, symObjAddr: 0x4AF44, symBinAddr: 0x10009BE64, symSize: 0x268 }
  - { offset: 0x7C62C, size: 0x8, addend: 0x0, symName: __ZNSt3__112__destroy_atB8ne200100INS_4pairIKNS_12basic_stringIcNS_11char_traitsIcEENS_9allocatorIcEEEEN4Pika8STLValueIS7_EEEETnNS_9enable_ifIXntsr8is_arrayIT_EE5valueEiE4typeELi0EEEvPSE_, symObjAddr: 0x38BE8, symBinAddr: 0x10008D610, symSize: 0x140 }
  - { offset: 0x7CA06, size: 0x8, addend: 0x0, symName: __ZNSt3__120__throw_out_of_rangeB8ne200100EPKc, symObjAddr: 0x39804, symBinAddr: 0x10008DFC8, symSize: 0x84 }
  - { offset: 0x7D1DF, size: 0x8, addend: 0x0, symName: __ZNSt3__119__allocate_at_leastB8ne200100INS_9allocatorINS_4pairINS_12basic_stringIcNS_11char_traitsIcEENS1_IcEEEEN4Pika8STLValueIS7_EEEEEEEENS_19__allocation_resultINS_16allocator_traitsIT_E7pointerEEERSF_m, symObjAddr: 0x47834, symBinAddr: 0x100099D18, symSize: 0x80 }
  - { offset: 0x7D28C, size: 0x8, addend: 0x0, symName: __ZNKSt3__16vectorINS_4pairINS_12basic_stringIcNS_11char_traitsIcEENS_9allocatorIcEEEEN4Pika8STLValueIS7_EEEENS5_ISB_EEE17__annotate_deleteB8ne200100Ev, symObjAddr: 0x478B4, symBinAddr: 0x100099D98, symSize: 0xE0 }
  - { offset: 0x7D319, size: 0x8, addend: 0x0, symName: __ZNSt3__134__uninitialized_allocator_relocateB8ne200100INS_9allocatorINS_4pairINS_12basic_stringIcNS_11char_traitsIcEENS1_IcEEEEN4Pika8STLValueIS7_EEEEEEPSB_EEvRT_T0_SG_SG_, symObjAddr: 0x47994, symBinAddr: 0x100099E78, symSize: 0x170 }
  - { offset: 0x7DA72, size: 0x8, addend: 0x0, symName: __ZNSt3__119__allocate_at_leastB8ne200100INS_9allocatorIN4Pika8STLValueINS_12basic_stringIcNS_11char_traitsIcEENS1_IcEEEEEEEEEENS_19__allocation_resultINS_16allocator_traitsIT_E7pointerEEERSD_m, symObjAddr: 0x4A8B4, symBinAddr: 0x10009B7D4, symSize: 0x80 }
  - { offset: 0x7DB1F, size: 0x8, addend: 0x0, symName: __ZNKSt3__16vectorIN4Pika8STLValueINS_12basic_stringIcNS_11char_traitsIcEENS_9allocatorIcEEEEEENS6_IS9_EEE14__annotate_newB8ne200100Em, symObjAddr: 0x4A934, symBinAddr: 0x10009B854, symSize: 0xCC }
  - { offset: 0x7EDAD, size: 0x8, addend: 0x0, symName: __ZN4Pika6ScriptINS_9StdConfigEE5Frame5whiteERNSt3__111__wrap_iterIPKcEERKS8_, symObjAddr: 0x11014, symBinAddr: 0x100067320, symSize: 0x724 }
  - { offset: 0x7EDE2, size: 0x8, addend: 0x0, symName: __ZZN4Pika6ScriptINS_9StdConfigEE5Frame5whiteERNSt3__111__wrap_iterIPKcEERKS8_E9END_CHARS_0, symObjAddr: 0x5268C, symBinAddr: 0x1000DFA9C, symSize: 0x0 }
  - { offset: 0x7F26E, size: 0x8, addend: 0x0, symName: _.str.25, symObjAddr: 0x53600, symBinAddr: 0x1000FD7C0, symSize: 0x0 }
  - { offset: 0x7F281, size: 0x8, addend: 0x0, symName: ___func__._ZN4Pika6ScriptINS_9StdConfigEE5Frame5tokenERNSt3__111__wrap_iterIPKcEERKS8_S7_, symObjAddr: 0x53620, symBinAddr: 0x1000FD7E0, symSize: 0x0 }
  - { offset: 0x7F294, size: 0x8, addend: 0x0, symName: ___func__._ZNK4Pika6ScriptINS_9StdConfigEE5Frame12resolveFrameERNSt3__111__wrap_iterIPKcEERKS8_, symObjAddr: 0x53640, symBinAddr: 0x1000FD800, symSize: 0x0 }
  - { offset: 0x7F2A7, size: 0x8, addend: 0x0, symName: _.str.26, symObjAddr: 0x53660, symBinAddr: 0x1000FD820, symSize: 0x0 }
  - { offset: 0x7F2C6, size: 0x8, addend: 0x0, symName: _.str.27, symObjAddr: 0x536A0, symBinAddr: 0x1000FD860, symSize: 0x0 }
  - { offset: 0x7F2E5, size: 0x8, addend: 0x0, symName: _.str.28, symObjAddr: 0x536E0, symBinAddr: 0x1000FD8A0, symSize: 0x0 }
  - { offset: 0x7F2F8, size: 0x8, addend: 0x0, symName: ___func__._ZN4Pika6ScriptINS_9StdConfigEE5Frame3preERNSt3__111__wrap_iterIPKcEERKS8_RNS4_4pairIbNS_8STLValueINS4_12basic_stringIcNS4_11char_traitsIcEENS4_9allocatorIcEEEEEEEEb, symObjAddr: 0x53720, symBinAddr: 0x1000FD8E0, symSize: 0x0 }
  - { offset: 0x7F30B, size: 0x8, addend: 0x0, symName: _.str.29, symObjAddr: 0x53740, symBinAddr: 0x1000FD900, symSize: 0x0 }
  - { offset: 0x7F31E, size: 0x8, addend: 0x0, symName: _.str.30, symObjAddr: 0x53760, symBinAddr: 0x1000FD920, symSize: 0x0 }
  - { offset: 0x7F33D, size: 0x8, addend: 0x0, symName: _.str.31, symObjAddr: 0x537C0, symBinAddr: 0x1000FD980, symSize: 0x0 }
  - { offset: 0x7F350, size: 0x8, addend: 0x0, symName: _.str.32, symObjAddr: 0x537E0, symBinAddr: 0x1000FD9A0, symSize: 0x0 }
  - { offset: 0x7F363, size: 0x8, addend: 0x0, symName: _.str.33, symObjAddr: 0x53800, symBinAddr: 0x1000FD9C0, symSize: 0x0 }
  - { offset: 0x7F382, size: 0x8, addend: 0x0, symName: _.str.34, symObjAddr: 0x53840, symBinAddr: 0x1000FDA00, symSize: 0x0 }
  - { offset: 0x7F3A1, size: 0x8, addend: 0x0, symName: _.str.35, symObjAddr: 0x53880, symBinAddr: 0x1000FDA40, symSize: 0x0 }
  - { offset: 0x7F3B4, size: 0x8, addend: 0x0, symName: _.str.36, symObjAddr: 0x538A0, symBinAddr: 0x1000FDA60, symSize: 0x0 }
  - { offset: 0x7F3C7, size: 0x8, addend: 0x0, symName: _.str.37, symObjAddr: 0x538C0, symBinAddr: 0x1000FDA80, symSize: 0x0 }
  - { offset: 0x7F3DA, size: 0x8, addend: 0x0, symName: _.str.38, symObjAddr: 0x538E0, symBinAddr: 0x1000FDAA0, symSize: 0x0 }
  - { offset: 0x7F3ED, size: 0x8, addend: 0x0, symName: ___func__._ZN4Pika6ScriptINS_9StdConfigEE5Frame4postERNSt3__111__wrap_iterIPKcEERKS8_RNS4_4pairIbNS_8STLValueINS4_12basic_stringIcNS4_11char_traitsIcEENS4_9allocatorIcEEEEEEEEbNS_10PrecedenceE, symObjAddr: 0x53900, symBinAddr: 0x1000FDAC0, symSize: 0x0 }
  - { offset: 0x7F400, size: 0x8, addend: 0x0, symName: _.str.39, symObjAddr: 0x53920, symBinAddr: 0x1000FDAE0, symSize: 0x0 }
  - { offset: 0x7F41F, size: 0x8, addend: 0x0, symName: _.str.40, symObjAddr: 0x53960, symBinAddr: 0x1000FDB20, symSize: 0x0 }
  - { offset: 0x7F432, size: 0x8, addend: 0x0, symName: ___func__._ZN4Pika6ScriptINS_9StdConfigEE5Frame4exprERNSt3__111__wrap_iterIPKcEERKS8_RNS4_4pairIbNS_8STLValueINS4_12basic_stringIcNS4_11char_traitsIcEENS4_9allocatorIcEEEEEEEEbbNS_10PrecedenceE, symObjAddr: 0x539A0, symBinAddr: 0x1000FDB60, symSize: 0x0 }
  - { offset: 0x7F445, size: 0x8, addend: 0x0, symName: ___func__._ZN4Pika6ScriptINS_9StdConfigEE5Frame8termExprERNSt3__111__wrap_iterIPKcEERKS8_RNS4_4pairIbNS_8STLValueINS4_12basic_stringIcNS4_11char_traitsIcEENS4_9allocatorIcEEEEEEEEbbNS_10PrecedenceEc, symObjAddr: 0x539C0, symBinAddr: 0x1000FDB80, symSize: 0x0 }
  - { offset: 0x7F458, size: 0x8, addend: 0x0, symName: _.str.41, symObjAddr: 0x539E0, symBinAddr: 0x1000FDBA0, symSize: 0x0 }
  - { offset: 0x7F46B, size: 0x8, addend: 0x0, symName: _.str.42, symObjAddr: 0x53A00, symBinAddr: 0x1000FDBC0, symSize: 0x0 }
  - { offset: 0x7F47E, size: 0x8, addend: 0x0, symName: _.str.43, symObjAddr: 0x53A40, symBinAddr: 0x1000FDC00, symSize: 0x0 }
  - { offset: 0x7F491, size: 0x8, addend: 0x0, symName: _.str.44, symObjAddr: 0x53A60, symBinAddr: 0x1000FDC20, symSize: 0x0 }
  - { offset: 0x7F4A4, size: 0x8, addend: 0x0, symName: _.str.45, symObjAddr: 0x53AA0, symBinAddr: 0x1000FDC60, symSize: 0x0 }
  - { offset: 0x7F4B7, size: 0x8, addend: 0x0, symName: _.str.46, symObjAddr: 0x53AC0, symBinAddr: 0x1000FDC80, symSize: 0x0 }
  - { offset: 0x7F4CA, size: 0x8, addend: 0x0, symName: _.str.47, symObjAddr: 0x53AE0, symBinAddr: 0x1000FDCA0, symSize: 0x0 }
  - { offset: 0x7F4E9, size: 0x8, addend: 0x0, symName: _.str.48, symObjAddr: 0x53B20, symBinAddr: 0x1000FDCE0, symSize: 0x0 }
  - { offset: 0x7F4FC, size: 0x8, addend: 0x0, symName: _.str.49, symObjAddr: 0x53B60, symBinAddr: 0x1000FDD20, symSize: 0x0 }
  - { offset: 0x7F50F, size: 0x8, addend: 0x0, symName: _.str.50, symObjAddr: 0x53B80, symBinAddr: 0x1000FDD40, symSize: 0x0 }
  - { offset: 0x7F522, size: 0x8, addend: 0x0, symName: _.str.51, symObjAddr: 0x53BA0, symBinAddr: 0x1000FDD60, symSize: 0x0 }
  - { offset: 0x7F535, size: 0x8, addend: 0x0, symName: _.str.52, symObjAddr: 0x53BC0, symBinAddr: 0x1000FDD80, symSize: 0x0 }
  - { offset: 0x7F548, size: 0x8, addend: 0x0, symName: _.str.53, symObjAddr: 0x53BE0, symBinAddr: 0x1000FDDA0, symSize: 0x0 }
  - { offset: 0x7F55B, size: 0x8, addend: 0x0, symName: _.str.54, symObjAddr: 0x53C20, symBinAddr: 0x1000FDDE0, symSize: 0x0 }
  - { offset: 0x7F57A, size: 0x8, addend: 0x0, symName: _.str.55, symObjAddr: 0x53C60, symBinAddr: 0x1000FDE20, symSize: 0x0 }
  - { offset: 0x7F58D, size: 0x8, addend: 0x0, symName: _.str.56, symObjAddr: 0x53CA0, symBinAddr: 0x1000FDE60, symSize: 0x0 }
  - { offset: 0x7F5AC, size: 0x8, addend: 0x0, symName: _.str.57, symObjAddr: 0x53CE0, symBinAddr: 0x1000FDEA0, symSize: 0x0 }
  - { offset: 0x7F5BF, size: 0x8, addend: 0x0, symName: _.str.58, symObjAddr: 0x53D20, symBinAddr: 0x1000FDEE0, symSize: 0x0 }
  - { offset: 0x7F5DE, size: 0x8, addend: 0x0, symName: _.str.59, symObjAddr: 0x53D60, symBinAddr: 0x1000FDF20, symSize: 0x0 }
  - { offset: 0x7F5F1, size: 0x8, addend: 0x0, symName: _.str.60, symObjAddr: 0x53DA0, symBinAddr: 0x1000FDF60, symSize: 0x0 }
  - { offset: 0x7F610, size: 0x8, addend: 0x0, symName: _.str.61, symObjAddr: 0x53DE0, symBinAddr: 0x1000FDFA0, symSize: 0x0 }
  - { offset: 0x7F62F, size: 0x8, addend: 0x0, symName: _.str.62, symObjAddr: 0x53E40, symBinAddr: 0x1000FE000, symSize: 0x0 }
  - { offset: 0x7F642, size: 0x8, addend: 0x0, symName: _.str.63, symObjAddr: 0x53E60, symBinAddr: 0x1000FE020, symSize: 0x0 }
  - { offset: 0x7F655, size: 0x8, addend: 0x0, symName: _.str.64, symObjAddr: 0x53E80, symBinAddr: 0x1000FE040, symSize: 0x0 }
  - { offset: 0x7F668, size: 0x8, addend: 0x0, symName: _.str.65, symObjAddr: 0x53EA0, symBinAddr: 0x1000FE060, symSize: 0x0 }
  - { offset: 0x7F687, size: 0x8, addend: 0x0, symName: _.str.66, symObjAddr: 0x53F20, symBinAddr: 0x1000FE0E0, symSize: 0x0 }
  - { offset: 0x7F69A, size: 0x8, addend: 0x0, symName: _.str.67, symObjAddr: 0x53F40, symBinAddr: 0x1000FE100, symSize: 0x0 }
  - { offset: 0x7F6AD, size: 0x8, addend: 0x0, symName: _.str.68, symObjAddr: 0x53F60, symBinAddr: 0x1000FE120, symSize: 0x0 }
  - { offset: 0x7F6C0, size: 0x8, addend: 0x0, symName: _.str.69, symObjAddr: 0x53F80, symBinAddr: 0x1000FE140, symSize: 0x0 }
  - { offset: 0x7F6D3, size: 0x8, addend: 0x0, symName: _.str.70, symObjAddr: 0x53FA0, symBinAddr: 0x1000FE160, symSize: 0x0 }
  - { offset: 0x7F6E6, size: 0x8, addend: 0x0, symName: _.str.71, symObjAddr: 0x53FC0, symBinAddr: 0x1000FE180, symSize: 0x0 }
  - { offset: 0x7F6F9, size: 0x8, addend: 0x0, symName: _.str.72, symObjAddr: 0x53FE0, symBinAddr: 0x1000FE1A0, symSize: 0x0 }
  - { offset: 0x7F70C, size: 0x8, addend: 0x0, symName: _.str.73, symObjAddr: 0x54000, symBinAddr: 0x1000FE1C0, symSize: 0x0 }
  - { offset: 0x7F71F, size: 0x8, addend: 0x0, symName: _.str.74, symObjAddr: 0x54020, symBinAddr: 0x1000FE1E0, symSize: 0x0 }
  - { offset: 0x7F732, size: 0x8, addend: 0x0, symName: _.str.75, symObjAddr: 0x54040, symBinAddr: 0x1000FE200, symSize: 0x0 }
  - { offset: 0x7F745, size: 0x8, addend: 0x0, symName: _.str.76, symObjAddr: 0x54060, symBinAddr: 0x1000FE220, symSize: 0x0 }
  - { offset: 0x7F758, size: 0x8, addend: 0x0, symName: _.str.77, symObjAddr: 0x54080, symBinAddr: 0x1000FE240, symSize: 0x0 }
  - { offset: 0x7F76B, size: 0x8, addend: 0x0, symName: _.str.78, symObjAddr: 0x540A0, symBinAddr: 0x1000FE260, symSize: 0x0 }
  - { offset: 0x7F77E, size: 0x8, addend: 0x0, symName: _.str.79, symObjAddr: 0x540C0, symBinAddr: 0x1000FE280, symSize: 0x0 }
  - { offset: 0x7F791, size: 0x8, addend: 0x0, symName: _.str.80, symObjAddr: 0x540E0, symBinAddr: 0x1000FE2A0, symSize: 0x0 }
  - { offset: 0x7F7A4, size: 0x8, addend: 0x0, symName: _.str.81, symObjAddr: 0x54100, symBinAddr: 0x1000FE2C0, symSize: 0x0 }
  - { offset: 0x7F7B7, size: 0x8, addend: 0x0, symName: _.str.82, symObjAddr: 0x54120, symBinAddr: 0x1000FE2E0, symSize: 0x0 }
  - { offset: 0x7F7CA, size: 0x8, addend: 0x0, symName: _.str.83, symObjAddr: 0x54140, symBinAddr: 0x1000FE300, symSize: 0x0 }
  - { offset: 0x7F7DD, size: 0x8, addend: 0x0, symName: _.str.84, symObjAddr: 0x54160, symBinAddr: 0x1000FE320, symSize: 0x0 }
  - { offset: 0x7F7F0, size: 0x8, addend: 0x0, symName: _.str.85, symObjAddr: 0x54180, symBinAddr: 0x1000FE340, symSize: 0x0 }
  - { offset: 0x7F80F, size: 0x8, addend: 0x0, symName: _.str.86, symObjAddr: 0x54200, symBinAddr: 0x1000FE3C0, symSize: 0x0 }
  - { offset: 0x7F822, size: 0x8, addend: 0x0, symName: _.str.87, symObjAddr: 0x54220, symBinAddr: 0x1000FE3E0, symSize: 0x0 }
  - { offset: 0x7F835, size: 0x8, addend: 0x0, symName: _.str.88, symObjAddr: 0x54240, symBinAddr: 0x1000FE400, symSize: 0x0 }
  - { offset: 0x7F848, size: 0x8, addend: 0x0, symName: _.str.89, symObjAddr: 0x54260, symBinAddr: 0x1000FE420, symSize: 0x0 }
  - { offset: 0x7F85B, size: 0x8, addend: 0x0, symName: _.str.90, symObjAddr: 0x54280, symBinAddr: 0x1000FE440, symSize: 0x0 }
  - { offset: 0x7F86E, size: 0x8, addend: 0x0, symName: _.str.91, symObjAddr: 0x542A0, symBinAddr: 0x1000FE460, symSize: 0x0 }
  - { offset: 0x7F881, size: 0x8, addend: 0x0, symName: _.str.92, symObjAddr: 0x542C0, symBinAddr: 0x1000FE480, symSize: 0x0 }
  - { offset: 0x7F894, size: 0x8, addend: 0x0, symName: _.str.93, symObjAddr: 0x542E0, symBinAddr: 0x1000FE4A0, symSize: 0x0 }
  - { offset: 0x7F8A7, size: 0x8, addend: 0x0, symName: _.str.94, symObjAddr: 0x54300, symBinAddr: 0x1000FE4C0, symSize: 0x0 }
  - { offset: 0x7F8BA, size: 0x8, addend: 0x0, symName: _.str.95, symObjAddr: 0x54320, symBinAddr: 0x1000FE4E0, symSize: 0x0 }
  - { offset: 0x7F8CD, size: 0x8, addend: 0x0, symName: _.str.96, symObjAddr: 0x54340, symBinAddr: 0x1000FE500, symSize: 0x0 }
  - { offset: 0x7F8E0, size: 0x8, addend: 0x0, symName: _.str.97, symObjAddr: 0x54360, symBinAddr: 0x1000FE520, symSize: 0x0 }
  - { offset: 0x7F8F3, size: 0x8, addend: 0x0, symName: _.str.98, symObjAddr: 0x54380, symBinAddr: 0x1000FE540, symSize: 0x0 }
  - { offset: 0x7F906, size: 0x8, addend: 0x0, symName: _.str.99, symObjAddr: 0x543A0, symBinAddr: 0x1000FE560, symSize: 0x0 }
  - { offset: 0x7F919, size: 0x8, addend: 0x0, symName: _.str.100, symObjAddr: 0x543C0, symBinAddr: 0x1000FE580, symSize: 0x0 }
  - { offset: 0x7F92C, size: 0x8, addend: 0x0, symName: _.str.101, symObjAddr: 0x543E0, symBinAddr: 0x1000FE5A0, symSize: 0x0 }
  - { offset: 0x7F93F, size: 0x8, addend: 0x0, symName: _.str.102, symObjAddr: 0x54400, symBinAddr: 0x1000FE5C0, symSize: 0x0 }
  - { offset: 0x7F952, size: 0x8, addend: 0x0, symName: _.str.103, symObjAddr: 0x54420, symBinAddr: 0x1000FE5E0, symSize: 0x0 }
  - { offset: 0x7F965, size: 0x8, addend: 0x0, symName: _.str.104, symObjAddr: 0x54440, symBinAddr: 0x1000FE600, symSize: 0x0 }
  - { offset: 0x7F978, size: 0x8, addend: 0x0, symName: _.str.105, symObjAddr: 0x54460, symBinAddr: 0x1000FE620, symSize: 0x0 }
  - { offset: 0x7F98B, size: 0x8, addend: 0x0, symName: _.str.106, symObjAddr: 0x54480, symBinAddr: 0x1000FE640, symSize: 0x0 }
  - { offset: 0x7F99E, size: 0x8, addend: 0x0, symName: _.str.107, symObjAddr: 0x544A0, symBinAddr: 0x1000FE660, symSize: 0x0 }
  - { offset: 0x7F9B1, size: 0x8, addend: 0x0, symName: _.str.108, symObjAddr: 0x544C0, symBinAddr: 0x1000FE680, symSize: 0x0 }
  - { offset: 0x7F9C4, size: 0x8, addend: 0x0, symName: _.str.109, symObjAddr: 0x544E0, symBinAddr: 0x1000FE6A0, symSize: 0x0 }
  - { offset: 0x7F9D7, size: 0x8, addend: 0x0, symName: _.str.110, symObjAddr: 0x54500, symBinAddr: 0x1000FE6C0, symSize: 0x0 }
  - { offset: 0x7F9EA, size: 0x8, addend: 0x0, symName: _.str.111, symObjAddr: 0x54520, symBinAddr: 0x1000FE6E0, symSize: 0x0 }
  - { offset: 0x7F9FD, size: 0x8, addend: 0x0, symName: _.str.112, symObjAddr: 0x54540, symBinAddr: 0x1000FE700, symSize: 0x0 }
  - { offset: 0x7FA10, size: 0x8, addend: 0x0, symName: _.str.113, symObjAddr: 0x54560, symBinAddr: 0x1000FE720, symSize: 0x0 }
  - { offset: 0x7FA23, size: 0x8, addend: 0x0, symName: _.str.114, symObjAddr: 0x54580, symBinAddr: 0x1000FE740, symSize: 0x0 }
  - { offset: 0x7FA36, size: 0x8, addend: 0x0, symName: _.str.115, symObjAddr: 0x545A0, symBinAddr: 0x1000FE760, symSize: 0x0 }
  - { offset: 0x7FA4C, size: 0x8, addend: 0x0, symName: _.str.116, symObjAddr: 0x545C0, symBinAddr: 0x1000FE780, symSize: 0x0 }
  - { offset: 0x7FA5D, size: 0x8, addend: 0x0, symName: _.str.117, symObjAddr: 0x545E0, symBinAddr: 0x1000FE7A0, symSize: 0x0 }
  - { offset: 0x7FA7F, size: 0x8, addend: 0x0, symName: _.str.118, symObjAddr: 0x54600, symBinAddr: 0x1000FE7C0, symSize: 0x0 }
  - { offset: 0x7FA90, size: 0x8, addend: 0x0, symName: _.str.119, symObjAddr: 0x54620, symBinAddr: 0x1000FE7E0, symSize: 0x0 }
  - { offset: 0x7FAA6, size: 0x8, addend: 0x0, symName: _.str.120, symObjAddr: 0x54640, symBinAddr: 0x1000FE800, symSize: 0x0 }
  - { offset: 0x7FAB7, size: 0x8, addend: 0x0, symName: ___func__._ZN4Pika11intToStringINSt3__112basic_stringIcNS1_11char_traitsIcEENS1_9allocatorIcEEEEhEET_T0_ii, symObjAddr: 0x54660, symBinAddr: 0x1000FE820, symSize: 0x0 }
  - { offset: 0x7FAC8, size: 0x8, addend: 0x0, symName: _.str.123, symObjAddr: 0x54680, symBinAddr: 0x1000FE840, symSize: 0x0 }
  - { offset: 0x7FAD9, size: 0x8, addend: 0x0, symName: _.str.124, symObjAddr: 0x546C0, symBinAddr: 0x1000FE880, symSize: 0x0 }
  - { offset: 0x7FAF6, size: 0x8, addend: 0x0, symName: _.str.125, symObjAddr: 0x54720, symBinAddr: 0x1000FE8E0, symSize: 0x0 }
  - { offset: 0x7FB07, size: 0x8, addend: 0x0, symName: _.str.126, symObjAddr: 0x54740, symBinAddr: 0x1000FE900, symSize: 0x0 }
  - { offset: 0x7FB1A, size: 0x8, addend: 0x0, symName: _.str.127, symObjAddr: 0x54780, symBinAddr: 0x1000FE940, symSize: 0x0 }
  - { offset: 0x7FB2B, size: 0x8, addend: 0x0, symName: ___func__._ZN4Pika8unescapeINSt3__112basic_stringIcNS1_11char_traitsIcEENS1_9allocatorIcEEEEEET_RNS8_14const_iteratorERKS9_, symObjAddr: 0x547C0, symBinAddr: 0x1000FE980, symSize: 0x0 }
  - { offset: 0x7FB4D, size: 0x8, addend: 0x0, symName: _.str.128, symObjAddr: 0x547E0, symBinAddr: 0x1000FE9A0, symSize: 0x0 }
  - { offset: 0x7FB5E, size: 0x8, addend: 0x0, symName: _.str.129, symObjAddr: 0x54820, symBinAddr: 0x1000FE9E0, symSize: 0x0 }
  - { offset: 0x7FB6F, size: 0x8, addend: 0x0, symName: _.str.130, symObjAddr: 0x54860, symBinAddr: 0x1000FEA20, symSize: 0x0 }
  - { offset: 0x7FB80, size: 0x8, addend: 0x0, symName: ___func__._ZN4Pika12stringToLongINSt3__112basic_stringIcNS1_11char_traitsIcEENS1_9allocatorIcEEEEEElRNT_14const_iteratorERKS9_, symObjAddr: 0x548A0, symBinAddr: 0x1000FEA60, symSize: 0x0 }
  - { offset: 0x7FB93, size: 0x8, addend: 0x0, symName: _.str.131, symObjAddr: 0x548C0, symBinAddr: 0x1000FEA80, symSize: 0x0 }
  - { offset: 0x7FBA6, size: 0x8, addend: 0x0, symName: _.str.132, symObjAddr: 0x54900, symBinAddr: 0x1000FEAC0, symSize: 0x0 }
  - { offset: 0x7FBB7, size: 0x8, addend: 0x0, symName: ___func__._ZN4Pika14stringToDoubleINS_8STLValueINSt3__112basic_stringIcNS2_11char_traitsIcEENS2_9allocatorIcEEEEEEEEdRNT_14const_iteratorERKSB_, symObjAddr: 0x54940, symBinAddr: 0x1000FEB00, symSize: 0x0 }
  - { offset: 0x7FBC8, size: 0x8, addend: 0x0, symName: ___func__._ZN4Pika9hexToLongINSt3__112basic_stringIcNS1_11char_traitsIcEENS1_9allocatorIcEEEEEEmRNT_14const_iteratorERKS9_, symObjAddr: 0x54960, symBinAddr: 0x1000FEB20, symSize: 0x0 }
  - { offset: 0x7FBDB, size: 0x8, addend: 0x0, symName: ___func__._ZN4Pika6ScriptINS_9StdConfigEE5Frame12assignableOpINSt3__17dividesIdEEEEbRNS5_11__wrap_iterIPKcEERKSB_RNS5_4pairIbNS_8STLValueINS5_12basic_stringIcNS5_11char_traitsIcEENS5_9allocatorIcEEEEEEEEbNS_10PrecedenceEiSQ_T_, symObjAddr: 0x54980, symBinAddr: 0x1000FEB40, symSize: 0x0 }
  - { offset: 0x7FBEE, size: 0x8, addend: 0x0, symName: _.str.133, symObjAddr: 0x549A0, symBinAddr: 0x1000FEB60, symSize: 0x0 }
  - { offset: 0x7FC01, size: 0x8, addend: 0x0, symName: ___func__._ZN4Pika6ScriptINS_9StdConfigEE5Frame8binaryOpINSt3__17dividesIdEEEEbRNS5_11__wrap_iterIPKcEERKSB_RNS5_4pairIbNS_8STLValueINS5_12basic_stringIcNS5_11char_traitsIcEENS5_9allocatorIcEEEEEEEEbNS_10PrecedenceEiSQ_T_, symObjAddr: 0x549C0, symBinAddr: 0x1000FEB80, symSize: 0x0 }
  - { offset: 0x7FC14, size: 0x8, addend: 0x0, symName: ___func__._ZN4Pika6ScriptINS_9StdConfigEE5Frame8addSubOpINSt3__14plusIdEEEEbRNS5_11__wrap_iterIPKcEERKSB_RNS5_4pairIbNS_8STLValueINS5_12basic_stringIcNS5_11char_traitsIcEENS5_9allocatorIcEEEEEEEEbNS_10PrecedenceERKT_, symObjAddr: 0x549E0, symBinAddr: 0x1000FEBA0, symSize: 0x0 }
  - { offset: 0x7FC27, size: 0x8, addend: 0x0, symName: ___func__._ZN4Pika6ScriptINS_9StdConfigEE5Frame5lgtOpINSt3__14lessINS_8STLValueINS5_12basic_stringIcNS5_11char_traitsIcEENS5_9allocatorIcEEEEEEEENS5_10less_equalISE_EEPFmmiEEEbRNS5_11__wrap_iterIPKcEERKSN_RNS5_4pairIbSE_EEbNS_10PrecedenceERKT_RKT0_T1_, symObjAddr: 0x54A00, symBinAddr: 0x1000FEBC0, symSize: 0x0 }
  - { offset: 0x7FC3A, size: 0x8, addend: 0x0, symName: _.str.134, symObjAddr: 0x54A20, symBinAddr: 0x1000FEBE0, symSize: 0x0 }
  - { offset: 0x7FC4B, size: 0x8, addend: 0x0, symName: ___func__._ZN4Pika14doubleToStringINSt3__112basic_stringIcNS1_11char_traitsIcEENS1_9allocatorIcEEEEEET_di, symObjAddr: 0x54A40, symBinAddr: 0x1000FEC00, symSize: 0x0 }
  - { offset: 0x7FC5C, size: 0x8, addend: 0x0, symName: _.str.135, symObjAddr: 0x54A60, symBinAddr: 0x1000FEC20, symSize: 0x0 }
  - { offset: 0x7FC79, size: 0x8, addend: 0x0, symName: _.str.136, symObjAddr: 0x54AC0, symBinAddr: 0x1000FEC80, symSize: 0x0 }
  - { offset: 0x7FC8A, size: 0x8, addend: 0x0, symName: _.str.137, symObjAddr: 0x54AE0, symBinAddr: 0x1000FECA0, symSize: 0x0 }
  - { offset: 0x7FC9B, size: 0x8, addend: 0x0, symName: _.str.138, symObjAddr: 0x54B00, symBinAddr: 0x1000FECC0, symSize: 0x0 }
  - { offset: 0x7FCAC, size: 0x8, addend: 0x0, symName: _.str.139, symObjAddr: 0x54B20, symBinAddr: 0x1000FECE0, symSize: 0x0 }
  - { offset: 0x7FCBD, size: 0x8, addend: 0x0, symName: _.str.140, symObjAddr: 0x54B40, symBinAddr: 0x1000FED00, symSize: 0x0 }
  - { offset: 0x808CA, size: 0x8, addend: 0x0, symName: __ZN4Pika6ScriptINS_9StdConfigEE6Native8pikaCallERNS2_5FrameE, symObjAddr: 0x0, symBinAddr: 0x1000573E0, symSize: 0x22C }
  - { offset: 0x80C22, size: 0x8, addend: 0x0, symName: __ZN4Pika9ExceptionINSt3__112basic_stringIcNS1_11char_traitsIcEENS1_9allocatorIcEEEEEC2ERKS7_, symObjAddr: 0x3731C, symBinAddr: 0x10008C670, symSize: 0x158 }
  - { offset: 0x80D26, size: 0x8, addend: 0x0, symName: __ZN4Pika9ExceptionINSt3__112basic_stringIcNS1_11char_traitsIcEENS1_9allocatorIcEEEEEC1ERKS7_, symObjAddr: 0x22C, symBinAddr: 0x10005760C, symSize: 0x14 }
  - { offset: 0x80D6A, size: 0x8, addend: 0x0, symName: __ZN4Pika9ExceptionINSt3__112basic_stringIcNS1_11char_traitsIcEENS1_9allocatorIcEEEEED1Ev, symObjAddr: 0x240, symBinAddr: 0x100057620, symSize: 0x14 }
  - { offset: 0x80DA0, size: 0x8, addend: 0x0, symName: __ZN4Pika9ExceptionINSt3__112basic_stringIcNS1_11char_traitsIcEENS1_9allocatorIcEEEEED2Ev, symObjAddr: 0x378F4, symBinAddr: 0x10008CC48, symSize: 0x160 }
  - { offset: 0x80F8F, size: 0x8, addend: 0x0, symName: __ZN4Pika6ScriptINS_9StdConfigEE6NativeD2Ev, symObjAddr: 0x264, symBinAddr: 0x100057634, symSize: 0x14 }
  - { offset: 0x80FBB, size: 0x8, addend: 0x0, symName: __ZN4Pika6ScriptINS_9StdConfigEE6NativeD1Ev, symObjAddr: 0x278, symBinAddr: 0x100057648, symSize: 0x14 }
  - { offset: 0x80FE7, size: 0x8, addend: 0x0, symName: __ZN4Pika6ScriptINS_9StdConfigEE6NativeD0Ev, symObjAddr: 0x28C, symBinAddr: 0x10005765C, symSize: 0x14 }
  - { offset: 0x810BB, size: 0x8, addend: 0x0, symName: __ZN4Pika6ScriptINS_9StdConfigEE4RootC2ERNS2_9VariablesE, symObjAddr: 0x2A0, symBinAddr: 0x100057670, symSize: 0x178 }
  - { offset: 0x811BD, size: 0x8, addend: 0x0, symName: __ZN4Pika6ScriptINS_9StdConfigEE5FrameC2ERNS2_9VariablesERNS2_4RootEPS3_, symObjAddr: 0x418, symBinAddr: 0x1000577E8, symSize: 0x114 }
  - { offset: 0x81239, size: 0x8, addend: 0x0, symName: __ZN4Pika6ScriptINS_9StdConfigEE4Root13generateLabelEv, symObjAddr: 0x209C, symBinAddr: 0x10005946C, symSize: 0x328 }
  - { offset: 0x812B9, size: 0x8, addend: 0x0, symName: __ZN4Pika6ScriptINS_9StdConfigEE5FrameD2Ev, symObjAddr: 0x52C, symBinAddr: 0x1000578FC, symSize: 0xE4 }
  - { offset: 0x813ED, size: 0x8, addend: 0x0, symName: __ZN4Pika6ScriptINS_9StdConfigEE4RootC1ERNS2_9VariablesE, symObjAddr: 0x610, symBinAddr: 0x1000579E0, symSize: 0x178 }
  - { offset: 0x8172C, size: 0x8, addend: 0x0, symName: __ZN4Pika6ScriptINS_9StdConfigEE4Root5traceERNS2_5FrameERKNSt3__112basic_stringIcNS6_11char_traitsIcEENS6_9allocatorIcEEEEmbRKNS_8STLValueISC_EENS_10PrecedenceEb, symObjAddr: 0x788, symBinAddr: 0x100057B58, symSize: 0x96C }
  - { offset: 0x82323, size: 0x8, addend: 0x0, symName: __ZN4Pika8STLValueINSt3__112basic_stringIcNS1_11char_traitsIcEENS1_9allocatorIcEEEEEC2Em, symObjAddr: 0x37A54, symBinAddr: 0x10008CDA8, symSize: 0x270 }
  - { offset: 0x8257F, size: 0x8, addend: 0x0, symName: __ZN4Pika8STLValueINSt3__112basic_stringIcNS1_11char_traitsIcEENS1_9allocatorIcEEEEEC2Eb, symObjAddr: 0x37CC4, symBinAddr: 0x10008D018, symSize: 0x29C }
  - { offset: 0x827DB, size: 0x8, addend: 0x0, symName: __ZN4Pika8STLValueINSt3__112basic_stringIcNS1_11char_traitsIcEENS1_9allocatorIcEEEEEC2Ei, symObjAddr: 0x37F60, symBinAddr: 0x10008D2B4, symSize: 0x270 }
  - { offset: 0x82A31, size: 0x8, addend: 0x0, symName: __ZN4Pika6ScriptINS_9StdConfigEE5Frame4callERKNSt3__112basic_stringIcNS4_11char_traitsIcEENS4_9allocatorIcEEEERKNS_8STLValueISA_EElPSF_, symObjAddr: 0x10F4, symBinAddr: 0x1000584C4, symSize: 0xE90 }
  - { offset: 0x844D9, size: 0x8, addend: 0x0, symName: __ZN4Pika8STLValueINSt3__112basic_stringIcNS1_11char_traitsIcEENS1_9allocatorIcEEEEEC2El, symObjAddr: 0x38E58, symBinAddr: 0x10008D880, symSize: 0x270 }
  - { offset: 0x84735, size: 0x8, addend: 0x0, symName: __ZNSt3__13mapIKNS_12basic_stringIcNS_11char_traitsIcEENS_9allocatorIcEEEEN4Pika8STLValueIS6_EENS_4lessIS7_EENS4_INS_4pairIS7_SA_EEEEEixERS7_, symObjAddr: 0x27854, symBinAddr: 0x10007DAD4, symSize: 0xCC }
  - { offset: 0x84858, size: 0x8, addend: 0x0, symName: __ZNK4Pika6ScriptINS_9StdConfigEE5Frame3getERKNSt3__112basic_stringIcNS4_11char_traitsIcEENS4_9allocatorIcEEEEb, symObjAddr: 0x2548, symBinAddr: 0x100059918, symSize: 0x974 }
  - { offset: 0x850AC, size: 0x8, addend: 0x0, symName: __ZN4Pika6ScriptINS_9StdConfigEE5Frame7executeERKNSt3__112basic_stringIcNS4_11char_traitsIcEENS4_9allocatorIcEEEE, symObjAddr: 0x6508, symBinAddr: 0x10005C814, symSize: 0xBE8 }
  - { offset: 0x85F7F, size: 0x8, addend: 0x0, symName: __ZN4Pika6ScriptINS_9StdConfigEE12STLVariablesD2Ev, symObjAddr: 0x2733C, symBinAddr: 0x10007D5BC, symSize: 0x2FC }
  - { offset: 0x86263, size: 0x8, addend: 0x0, symName: __ZN4Pika6ScriptINS_9StdConfigEE4Root9setTracerENS_10PrecedenceERKNS_8STLValueINSt3__112basic_stringIcNS6_11char_traitsIcEENS6_9allocatorIcEEEEEE, symObjAddr: 0x1F84, symBinAddr: 0x100059354, symSize: 0xA0 }
  - { offset: 0x862CA, size: 0x8, addend: 0x0, symName: __ZNK4Pika6ScriptINS_9StdConfigEE4Root7doTraceENS_10PrecedenceE, symObjAddr: 0x2024, symBinAddr: 0x1000593F4, symSize: 0x78 }
  - { offset: 0x864BC, size: 0x8, addend: 0x0, symName: __ZN4Pika6ScriptINS_9StdConfigEE9VariablesD2Ev, symObjAddr: 0x23C4, symBinAddr: 0x100059794, symSize: 0x14 }
  - { offset: 0x864E8, size: 0x8, addend: 0x0, symName: __ZN4Pika6ScriptINS_9StdConfigEE9VariablesD1Ev, symObjAddr: 0x23D8, symBinAddr: 0x1000597A8, symSize: 0x10 }
  - { offset: 0x86516, size: 0x8, addend: 0x0, symName: __ZN4Pika6ScriptINS_9StdConfigEE9VariablesD0Ev, symObjAddr: 0x23E8, symBinAddr: 0x1000597B8, symSize: 0x10 }
  - { offset: 0x86544, size: 0x8, addend: 0x0, symName: __ZN4Pika6ScriptINS_9StdConfigEE5FrameC1ERNS2_9VariablesERNS2_4RootEPS3_, symObjAddr: 0x23F8, symBinAddr: 0x1000597C8, symSize: 0x14 }
  - { offset: 0x865A4, size: 0x8, addend: 0x0, symName: __ZNK4Pika6ScriptINS_9StdConfigEE5Frame12getVariablesEv, symObjAddr: 0x240C, symBinAddr: 0x1000597DC, symSize: 0x48 }
  - { offset: 0x865C6, size: 0x8, addend: 0x0, symName: __ZNK4Pika6ScriptINS_9StdConfigEE5Frame7getRootEv, symObjAddr: 0x2454, symBinAddr: 0x100059824, symSize: 0x48 }
  - { offset: 0x865E8, size: 0x8, addend: 0x0, symName: __ZNK4Pika6ScriptINS_9StdConfigEE5Frame11getPreviousEv, symObjAddr: 0x249C, symBinAddr: 0x10005986C, symSize: 0xAC }
  - { offset: 0x86684, size: 0x8, addend: 0x0, symName: __ZNK4Pika6ScriptINS_9StdConfigEE5Frame12resolveFrameERKNSt3__112basic_stringIcNS4_11char_traitsIcEENS4_9allocatorIcEEEE, symObjAddr: 0x2EBC, symBinAddr: 0x10005A28C, symSize: 0x530 }
  - { offset: 0x86E86, size: 0x8, addend: 0x0, symName: __ZNK4Pika6ScriptINS_9StdConfigEE5Frame12resolveFrameERNSt3__111__wrap_iterIPKcEERKS8_, symObjAddr: 0x51A0, symBinAddr: 0x10005B4AC, symSize: 0xF80 }
  - { offset: 0x88227, size: 0x8, addend: 0x0, symName: __ZNK4Pika6ScriptINS_9StdConfigEE5Frame11getOptionalERKNSt3__112basic_stringIcNS4_11char_traitsIcEENS4_9allocatorIcEEEERKNS_8STLValueISA_EE, symObjAddr: 0x4120, symBinAddr: 0x10005A7BC, symSize: 0x474 }
  - { offset: 0x88881, size: 0x8, addend: 0x0, symName: __ZN4Pika6ScriptINS_9StdConfigEE5Frame3setERKNSt3__112basic_stringIcNS4_11char_traitsIcEENS4_9allocatorIcEEEERKNS_8STLValueISA_EE, symObjAddr: 0x4594, symBinAddr: 0x10005AC30, symSize: 0x534 }
  - { offset: 0x88EBA, size: 0x8, addend: 0x0, symName: __ZNK4Pika6ScriptINS_9StdConfigEE5Frame9referenceERKNSt3__112basic_stringIcNS4_11char_traitsIcEENS4_9allocatorIcEEEE, symObjAddr: 0x4AC8, symBinAddr: 0x10005B164, symSize: 0x348 }
  - { offset: 0x89614, size: 0x8, addend: 0x0, symName: __ZN4Pika6ScriptINS_9StdConfigEE12STLVariables6assignERKNSt3__112basic_stringIcNS4_11char_traitsIcEENS4_9allocatorIcEEEERKNS_8STLValueISA_EE, symObjAddr: 0x6120, symBinAddr: 0x10005C42C, symSize: 0x40 }
  - { offset: 0x89697, size: 0x8, addend: 0x0, symName: __ZN4Pika6ScriptINS_9StdConfigEE5Frame8evaluateENSt3__112basic_stringIcNS4_11char_traitsIcEENS4_9allocatorIcEEEE, symObjAddr: 0x71E8, symBinAddr: 0x10005D4F4, symSize: 0x1D34 }
  - { offset: 0x8BFD2, size: 0x8, addend: 0x0, symName: __ZN4Pika6ScriptINS_9StdConfigEE5FrameD1Ev, symObjAddr: 0x70F0, symBinAddr: 0x10005D3FC, symSize: 0xE4 }
  - { offset: 0x8C0EE, size: 0x8, addend: 0x0, symName: __ZN4Pika6ScriptINS_9StdConfigEE12STLVariablesD1Ev, symObjAddr: 0x71D4, symBinAddr: 0x10005D4E0, symSize: 0x14 }
  - { offset: 0x8C3CF, size: 0x8, addend: 0x0, symName: __ZN4Pika6ScriptINS_9StdConfigEE5Frame4exprERNSt3__111__wrap_iterIPKcEERKS8_RNS4_4pairIbNS_8STLValueINS4_12basic_stringIcNS4_11char_traitsIcEENS4_9allocatorIcEEEEEEEEbbNS_10PrecedenceE, symObjAddr: 0x90EC, symBinAddr: 0x10005F3F8, symSize: 0x8CC }
  - { offset: 0x8C8DC, size: 0x8, addend: 0x0, symName: __ZN4Pika6ScriptINS_9StdConfigEE5Frame6rvalueERKNSt3__14pairIbNS_8STLValueINS4_12basic_stringIcNS4_11char_traitsIcEENS4_9allocatorIcEEEEEEEEb, symObjAddr: 0x99B8, symBinAddr: 0x10005FCC4, symSize: 0x160 }
  - { offset: 0x8CBBF, size: 0x8, addend: 0x0, symName: __ZN4Pika6ScriptINS_9StdConfigEE5Frame4tickERKNSt3__111__wrap_iterIPKcEERKNS4_4pairIbNS_8STLValueINS4_12basic_stringIcNS4_11char_traitsIcEENS4_9allocatorIcEEEEEEEENS_10PrecedenceEb, symObjAddr: 0x8F1C, symBinAddr: 0x10005F228, symSize: 0x1D0 }
  - { offset: 0x8CC9A, size: 0x8, addend: 0x0, symName: __ZN4Pika6ScriptINS_9StdConfigEE5Frame3preERNSt3__111__wrap_iterIPKcEERKS8_RNS4_4pairIbNS_8STLValueINS4_12basic_stringIcNS4_11char_traitsIcEENS4_9allocatorIcEEEEEEEEb, symObjAddr: 0xA7A4, symBinAddr: 0x100060AB0, symSize: 0x5AF4 }
  - { offset: 0x974F1, size: 0x8, addend: 0x0, symName: __ZN4Pika6ScriptINS_9StdConfigEE5Frame4postERNSt3__111__wrap_iterIPKcEERKS8_RNS4_4pairIbNS_8STLValueINS4_12basic_stringIcNS4_11char_traitsIcEENS4_9allocatorIcEEEEEEEEbNS_10PrecedenceE, symObjAddr: 0x15314, symBinAddr: 0x10006B620, symSize: 0x5218 }
  - { offset: 0xA0714, size: 0x8, addend: 0x0, symName: __ZN4Pika6ScriptINS_9StdConfigEE5Frame5parseERKNSt3__111__wrap_iterIPKcEESA_b, symObjAddr: 0x9B18, symBinAddr: 0x10005FE24, symSize: 0x740 }
  - { offset: 0xA0CEC, size: 0x8, addend: 0x0, symName: __ZN4Pika6ScriptINS_9StdConfigEE5Frame5tokenERNSt3__111__wrap_iterIPKcEERKS8_S7_, symObjAddr: 0xA258, symBinAddr: 0x100060564, symSize: 0x54C }
  - { offset: 0xA0EE3, size: 0x8, addend: 0x0, symName: __ZN4Pika6ScriptINS_9StdConfigEE5Frame8termExprERNSt3__111__wrap_iterIPKcEERKS8_RNS4_4pairIbNS_8STLValueINS4_12basic_stringIcNS4_11char_traitsIcEENS4_9allocatorIcEEEEEEEEbbNS_10PrecedenceEc, symObjAddr: 0x122B4, symBinAddr: 0x1000685C0, symSize: 0x56C }
  - { offset: 0xA1516, size: 0x8, addend: 0x0, symName: __ZN4Pika8STLValueINSt3__112basic_stringIcNS1_11char_traitsIcEENS1_9allocatorIcEEEEEC2Ed, symObjAddr: 0x3AAB8, symBinAddr: 0x10008F27C, symSize: 0x274 }
  - { offset: 0xA1767, size: 0x8, addend: 0x0, symName: __ZN4Pika6ScriptINS_9StdConfigEE5Frame6lvalueERKNSt3__14pairIbNS_8STLValueINS4_12basic_stringIcNS4_11char_traitsIcEENS4_9allocatorIcEEEEEEEE, symObjAddr: 0x10D2C, symBinAddr: 0x100067038, symSize: 0x2E8 }
  - { offset: 0xA18EC, size: 0x8, addend: 0x0, symName: __ZNK4Pika8STLValueINSt3__112basic_stringIcNS1_11char_traitsIcEENS1_9allocatorIcEEEEEcvbEv, symObjAddr: 0x11738, symBinAddr: 0x100067A44, symSize: 0xB7C }
  - { offset: 0xA2840, size: 0x8, addend: 0x0, symName: __ZNK4Pika8STLValueINSt3__112basic_stringIcNS1_11char_traitsIcEENS1_9allocatorIcEEEEEcvlEv, symObjAddr: 0x13C80, symBinAddr: 0x100069F8C, symSize: 0x648 }
  - { offset: 0xA2E87, size: 0x8, addend: 0x0, symName: __ZNK4Pika8STLValueINSt3__112basic_stringIcNS1_11char_traitsIcEENS1_9allocatorIcEEEEEcvdEv, symObjAddr: 0x142C8, symBinAddr: 0x10006A5D4, symSize: 0x494 }
  - { offset: 0xA330A, size: 0x8, addend: 0x0, symName: __ZN4Pika6ScriptINS_9StdConfigEE5Frame14registerNativeERKNSt3__112basic_stringIcNS4_11char_traitsIcEENS4_9allocatorIcEEEEPNS2_6NativeE, symObjAddr: 0x10298, symBinAddr: 0x1000665A4, symSize: 0x998 }
  - { offset: 0xA4143, size: 0x8, addend: 0x0, symName: __ZN4Pika6ScriptINS_9StdConfigEE5Frame16unregisterNativeERKNSt3__112basic_stringIcNS4_11char_traitsIcEENS4_9allocatorIcEEEE, symObjAddr: 0x10C30, symBinAddr: 0x100066F3C, symSize: 0x18 }
  - { offset: 0xA4199, size: 0x8, addend: 0x0, symName: __ZN4Pika6ScriptINS_9StdConfigEE5FrameD0Ev, symObjAddr: 0x10C48, symBinAddr: 0x100066F54, symSize: 0xE4 }
  - { offset: 0xA4599, size: 0x8, addend: 0x0, symName: __ZNSt3__112basic_stringIcNS_11char_traitsIcEENS_9allocatorIcEEEC1IN4Pika8STLValueIS5_EETnNS_9enable_ifIXaasr33__can_be_converted_to_string_viewIcS2_T_EE5valuentsr17__is_same_uncvrefISB_S5_EE5valueEiE4typeELi0EEERKSB_, symObjAddr: 0x39588, symBinAddr: 0x10008DD4C, symSize: 0x27C }
  - { offset: 0xA4A11, size: 0x8, addend: 0x0, symName: __ZN4Pika6ScriptINS_9StdConfigEE5Frame12assignableOpIPFlllEEEbRNSt3__111__wrap_iterIPKcEERKSB_RNS7_4pairIbNS_8STLValueINS7_12basic_stringIcNS7_11char_traitsIcEENS7_9allocatorIcEEEEEEEEbNS_10PrecedenceEiSQ_T_, symObjAddr: 0x1D09C, symBinAddr: 0x1000733A8, symSize: 0xA08 }
  - { offset: 0xA5A3E, size: 0x8, addend: 0x0, symName: __ZN4Pika6ScriptINS_9StdConfigEE5Frame8addSubOpINSt3__15minusIdEEEEbRNS5_11__wrap_iterIPKcEERKSB_RNS5_4pairIbNS_8STLValueINS5_12basic_stringIcNS5_11char_traitsIcEENS5_9allocatorIcEEEEEEEEbNS_10PrecedenceERKT_, symObjAddr: 0x1B5AC, symBinAddr: 0x1000718B8, symSize: 0x6D4 }
  - { offset: 0xA6486, size: 0x8, addend: 0x0, symName: __ZN4Pika6ScriptINS_9StdConfigEE5Frame5lgtOpINSt3__14lessINS_8STLValueINS5_12basic_stringIcNS5_11char_traitsIcEENS5_9allocatorIcEEEEEEEENS5_10less_equalISE_EEPFmmiEEEbRNS5_11__wrap_iterIPKcEERKSN_RNS5_4pairIbSE_EEbNS_10PrecedenceERKT_RKT0_T1_, symObjAddr: 0x1F190, symBinAddr: 0x100075470, symSize: 0x2A0 }
  - { offset: 0xA6656, size: 0x8, addend: 0x0, symName: __ZN4Pika6ScriptINS_9StdConfigEE5Frame8addSubOpINSt3__14plusIdEEEEbRNS5_11__wrap_iterIPKcEERKSB_RNS5_4pairIbNS_8STLValueINS5_12basic_stringIcNS5_11char_traitsIcEENS5_9allocatorIcEEEEEEEEbNS_10PrecedenceERKT_, symObjAddr: 0x1AED8, symBinAddr: 0x1000711E4, symSize: 0x6D4 }
  - { offset: 0xA7072, size: 0x8, addend: 0x0, symName: __ZN4Pika6ScriptINS_9StdConfigEE5Frame8binaryOpINSt3__112not_equal_toINS5_12basic_stringIcNS5_11char_traitsIcEENS5_9allocatorIcEEEEEEEEbRNS5_11__wrap_iterIPKcEERKSH_RNS5_4pairIbNS_8STLValueISC_EEEEbNS_10PrecedenceEiSQ_T_, symObjAddr: 0x1F700, symBinAddr: 0x1000759B0, symSize: 0x930 }
  - { offset: 0xA8242, size: 0x8, addend: 0x0, symName: __ZN4Pika6ScriptINS_9StdConfigEE5Frame12assignableOpIPFdddEEEbRNSt3__111__wrap_iterIPKcEERKSB_RNS7_4pairIbNS_8STLValueINS7_12basic_stringIcNS7_11char_traitsIcEENS7_9allocatorIcEEEEEEEEbNS_10PrecedenceEiSQ_T_, symObjAddr: 0x1DD64, symBinAddr: 0x100074070, symSize: 0x9F8 }
  - { offset: 0xA9244, size: 0x8, addend: 0x0, symName: __ZN4Pika6ScriptINS_9StdConfigEE5Frame12assignableOpINSt3__14plusINS5_12basic_stringIcNS5_11char_traitsIcEENS5_9allocatorIcEEEEEEEEbRNS5_11__wrap_iterIPKcEERKSH_RNS5_4pairIbNS_8STLValueISC_EEEEbNS_10PrecedenceEiSQ_T_, symObjAddr: 0x1BC80, symBinAddr: 0x100071F8C, symSize: 0xA70 }
  - { offset: 0xAA447, size: 0x8, addend: 0x0, symName: __ZN4Pika6ScriptINS_9StdConfigEE5Frame12assignableOpINSt3__110multipliesIdEEEEbRNS5_11__wrap_iterIPKcEERKSB_RNS5_4pairIbNS_8STLValueINS5_12basic_stringIcNS5_11char_traitsIcEENS5_9allocatorIcEEEEEEEEbNS_10PrecedenceEiSQ_T_, symObjAddr: 0x1C6F0, symBinAddr: 0x1000729FC, symSize: 0x9AC }
  - { offset: 0xAB46A, size: 0x8, addend: 0x0, symName: __ZN4Pika6ScriptINS_9StdConfigEE5Frame5lgtOpINSt3__17greaterINS_8STLValueINS5_12basic_stringIcNS5_11char_traitsIcEENS5_9allocatorIcEEEEEEEENS5_13greater_equalISE_EEPFmmiEEEbRNS5_11__wrap_iterIPKcEERKSN_RNS5_4pairIbSE_EEbNS_10PrecedenceERKT_RKT0_T1_, symObjAddr: 0x1F448, symBinAddr: 0x100075710, symSize: 0x2A0 }
  - { offset: 0xAB639, size: 0x8, addend: 0x0, symName: __ZN4Pika6ScriptINS_9StdConfigEE5Frame8binaryOpINSt3__18equal_toINS5_12basic_stringIcNS5_11char_traitsIcEENS5_9allocatorIcEEEEEEEEbRNS5_11__wrap_iterIPKcEERKSH_RNS5_4pairIbNS_8STLValueISC_EEEEbNS_10PrecedenceEiSQ_T_, symObjAddr: 0x2082C, symBinAddr: 0x100076ADC, symSize: 0x930 }
  - { offset: 0xAC7FB, size: 0x8, addend: 0x0, symName: __ZN4Pika6ScriptINS_9StdConfigEE5Frame12assignableOpIPFmmmEEEbRNSt3__111__wrap_iterIPKcEERKSB_RNS7_4pairIbNS_8STLValueINS7_12basic_stringIcNS7_11char_traitsIcEENS7_9allocatorIcEEEEEEEEbNS_10PrecedenceEiSQ_T_, symObjAddr: 0x1E770, symBinAddr: 0x100074A68, symSize: 0xA08 }
  - { offset: 0xAD841, size: 0x8, addend: 0x0, symName: __ZN4Pika6ScriptINS_9StdConfigEE5Frame12assignableOpINSt3__17dividesIdEEEEbRNS5_11__wrap_iterIPKcEERKSB_RNS5_4pairIbNS_8STLValueINS5_12basic_stringIcNS5_11char_traitsIcEENS5_9allocatorIcEEEEEEEEbNS_10PrecedenceEiSQ_T_, symObjAddr: 0x1A52C, symBinAddr: 0x100070838, symSize: 0x9AC }
  - { offset: 0xAE84E, size: 0x8, addend: 0x0, symName: __ZN4Pika6ScriptINS_9StdConfigEE5Frame8binaryOpINSt3__112not_equal_toINS_8STLValueINS5_12basic_stringIcNS5_11char_traitsIcEENS5_9allocatorIcEEEEEEEEEEbRNS5_11__wrap_iterIPKcEERKSJ_RNS5_4pairIbSE_EEbNS_10PrecedenceEiSQ_T_, symObjAddr: 0x20030, symBinAddr: 0x1000762E0, symSize: 0x7FC }
  - { offset: 0xAF769, size: 0x8, addend: 0x0, symName: __ZNK4Pika8STLValueINSt3__112basic_stringIcNS1_11char_traitsIcEENS1_9allocatorIcEEEEEixERKS8_, symObjAddr: 0x21C60, symBinAddr: 0x100077EE0, symSize: 0x1528 }
  - { offset: 0xB13C1, size: 0x8, addend: 0x0, symName: __ZN4Pika6ScriptINS_9StdConfigEE5Frame8binaryOpINSt3__18equal_toINS_8STLValueINS5_12basic_stringIcNS5_11char_traitsIcEENS5_9allocatorIcEEEEEEEEEEbRNS5_11__wrap_iterIPKcEERKSJ_RNS5_4pairIbSE_EEbNS_10PrecedenceEiSQ_T_, symObjAddr: 0x2115C, symBinAddr: 0x10007740C, symSize: 0x7F8 }
  - { offset: 0xB22E9, size: 0x8, addend: 0x0, symName: __ZNK4Pika8STLValueINSt3__112basic_stringIcNS1_11char_traitsIcEENS1_9allocatorIcEEEEEixIS7_EEKS8_RKT_, symObjAddr: 0x21984, symBinAddr: 0x100077C04, symSize: 0x2DC }
  - { offset: 0xB25EF, size: 0x8, addend: 0x0, symName: __ZN4Pika6ScriptINS_9StdConfigEE5Frame8binaryOpINSt3__17dividesIdEEEEbRNS5_11__wrap_iterIPKcEERKSB_RNS5_4pairIbNS_8STLValueINS5_12basic_stringIcNS5_11char_traitsIcEENS5_9allocatorIcEEEEEEEEbNS_10PrecedenceEiSQ_T_, symObjAddr: 0x3AD2C, symBinAddr: 0x10008F4F0, symSize: 0x824 }
  - { offset: 0xB3552, size: 0x8, addend: 0x0, symName: __ZN4Pika6ScriptINS_9StdConfigEE5Frame12assignableOpINSt3__14plusIdEEEEbRNS5_11__wrap_iterIPKcEERKSB_RNS5_4pairIbNS_8STLValueINS5_12basic_stringIcNS5_11char_traitsIcEENS5_9allocatorIcEEEEEEEEbNS_10PrecedenceEiSQ_T_, symObjAddr: 0x3B550, symBinAddr: 0x10008FD14, symSize: 0x9AC }
  - { offset: 0xB4586, size: 0x8, addend: 0x0, symName: __ZN4Pika6ScriptINS_9StdConfigEE5Frame12assignableOpINSt3__15minusIdEEEEbRNS5_11__wrap_iterIPKcEERKSB_RNS5_4pairIbNS_8STLValueINS5_12basic_stringIcNS5_11char_traitsIcEENS5_9allocatorIcEEEEEEEEbNS_10PrecedenceEiSQ_T_, symObjAddr: 0x3C720, symBinAddr: 0x100090EE4, symSize: 0x9AC }
  - { offset: 0xB55BA, size: 0x8, addend: 0x0, symName: __ZN4Pika6ScriptINS_9StdConfigEE5Frame8binaryOpINSt3__14plusINS5_12basic_stringIcNS5_11char_traitsIcEENS5_9allocatorIcEEEEEEEEbRNS5_11__wrap_iterIPKcEERKSH_RNS5_4pairIbNS_8STLValueISC_EEEEbNS_10PrecedenceEiSQ_T_, symObjAddr: 0x3D8F0, symBinAddr: 0x1000920B4, symSize: 0x910 }
  - { offset: 0xB6715, size: 0x8, addend: 0x0, symName: __ZN4Pika6ScriptINS_9StdConfigEE5Frame8binaryOpINSt3__110multipliesIdEEEEbRNS5_11__wrap_iterIPKcEERKSB_RNS5_4pairIbNS_8STLValueINS5_12basic_stringIcNS5_11char_traitsIcEENS5_9allocatorIcEEEEEEEEbNS_10PrecedenceEiSQ_T_, symObjAddr: 0x3E200, symBinAddr: 0x1000929C4, symSize: 0x824 }
  - { offset: 0xB7647, size: 0x8, addend: 0x0, symName: __ZN4Pika6ScriptINS_9StdConfigEE5Frame8binaryOpIPFlllEEEbRNSt3__111__wrap_iterIPKcEERKSB_RNS7_4pairIbNS_8STLValueINS7_12basic_stringIcNS7_11char_traitsIcEENS7_9allocatorIcEEEEEEEEbNS_10PrecedenceEiSQ_T_, symObjAddr: 0x3EA24, symBinAddr: 0x1000931E8, symSize: 0x85C }
  - { offset: 0xB8578, size: 0x8, addend: 0x0, symName: __ZN4Pika6ScriptINS_9StdConfigEE5Frame6intDivEll, symObjAddr: 0x1DAA4, symBinAddr: 0x100073DB0, symSize: 0x2C0 }
  - { offset: 0xB86FC, size: 0x8, addend: 0x0, symName: __ZN4Pika6ScriptINS_9StdConfigEE5Frame8binaryOpIPFdddEEEbRNSt3__111__wrap_iterIPKcEERKSB_RNS7_4pairIbNS_8STLValueINS7_12basic_stringIcNS7_11char_traitsIcEENS7_9allocatorIcEEEEEEEEbNS_10PrecedenceEiSQ_T_, symObjAddr: 0x3F280, symBinAddr: 0x100093A44, symSize: 0x864 }
  - { offset: 0xB9616, size: 0x8, addend: 0x0, symName: __ZN4Pika6ScriptINS_9StdConfigEE5Frame8binaryOpIPFmmmEEEbRNSt3__111__wrap_iterIPKcEERKSB_RNS7_4pairIbNS_8STLValueINS7_12basic_stringIcNS7_11char_traitsIcEENS7_9allocatorIcEEEEEEEEbNS_10PrecedenceEiSQ_T_, symObjAddr: 0x3FAE4, symBinAddr: 0x1000942A8, symSize: 0x85C }
  - { offset: 0xBA571, size: 0x8, addend: 0x0, symName: __ZN4Pika6ScriptINS_9StdConfigEE5Frame12assignableOpIPFmmiEEEbRNSt3__111__wrap_iterIPKcEERKSB_RNS7_4pairIbNS_8STLValueINS7_12basic_stringIcNS7_11char_traitsIcEENS7_9allocatorIcEEEEEEEEbNS_10PrecedenceEiSQ_T_, symObjAddr: 0x40340, symBinAddr: 0x100094B04, symSize: 0xA08 }
  - { offset: 0xBB5B2, size: 0x8, addend: 0x0, symName: __ZN4Pika6ScriptINS_9StdConfigEE5Frame8binaryOpINSt3__14lessINS_8STLValueINS5_12basic_stringIcNS5_11char_traitsIcEENS5_9allocatorIcEEEEEEEEEEbRNS5_11__wrap_iterIPKcEERKSJ_RNS5_4pairIbSE_EEbNS_10PrecedenceEiSQ_T_, symObjAddr: 0x41544, symBinAddr: 0x100095D08, symSize: 0x7F8 }
  - { offset: 0xBC4DA, size: 0x8, addend: 0x0, symName: __ZN4Pika6ScriptINS_9StdConfigEE5Frame8binaryOpINSt3__110less_equalINS_8STLValueINS5_12basic_stringIcNS5_11char_traitsIcEENS5_9allocatorIcEEEEEEEEEEbRNS5_11__wrap_iterIPKcEERKSJ_RNS5_4pairIbSE_EEbNS_10PrecedenceEiSQ_T_, symObjAddr: 0x40D48, symBinAddr: 0x10009550C, symSize: 0x7FC }
  - { offset: 0xBD3F5, size: 0x8, addend: 0x0, symName: __ZN4Pika6ScriptINS_9StdConfigEE5Frame8binaryOpINSt3__17greaterINS_8STLValueINS5_12basic_stringIcNS5_11char_traitsIcEENS5_9allocatorIcEEEEEEEEEEbRNS5_11__wrap_iterIPKcEERKSJ_RNS5_4pairIbSE_EEbNS_10PrecedenceEiSQ_T_, symObjAddr: 0x43050, symBinAddr: 0x100097814, symSize: 0x7F8 }
  - { offset: 0xBE333, size: 0x8, addend: 0x0, symName: __ZN4Pika6ScriptINS_9StdConfigEE5Frame8binaryOpINSt3__113greater_equalINS_8STLValueINS5_12basic_stringIcNS5_11char_traitsIcEENS5_9allocatorIcEEEEEEEEEEbRNS5_11__wrap_iterIPKcEERKSJ_RNS5_4pairIbSE_EEbNS_10PrecedenceEiSQ_T_, symObjAddr: 0x42854, symBinAddr: 0x100097018, symSize: 0x7FC }
  - { offset: 0xBF2D9, size: 0x8, addend: 0x0, symName: __ZNK4Pika8STLValueINSt3__112basic_stringIcNS1_11char_traitsIcEENS1_9allocatorIcEEEEEeqERKS8_, symObjAddr: 0x43848, symBinAddr: 0x10009800C, symSize: 0x288 }
  - { offset: 0xBF5DA, size: 0x8, addend: 0x0, symName: __ZN4Pika6ScriptINS_9StdConfigEE8FullRootC2Eb, symObjAddr: 0x23188, symBinAddr: 0x100079408, symSize: 0x2B4 }
  - { offset: 0xBF81D, size: 0x8, addend: 0x0, symName: __ZN4Pika6ScriptINS_9StdConfigEE17addLibraryNativesERNS2_5FrameEb, symObjAddr: 0x2343C, symBinAddr: 0x1000796BC, symSize: 0x3F00 }
  - { offset: 0xC88AC, size: 0x8, addend: 0x0, symName: __ZN4Pika6ScriptINS_9StdConfigEE4RootD2Ev, symObjAddr: 0x27638, symBinAddr: 0x10007D8B8, symSize: 0x180 }
  - { offset: 0xC9B27, size: 0x8, addend: 0x0, symName: __ZNSt3__16__treeINS_12__value_typeIKNS_12basic_stringIcNS_11char_traitsIcEENS_9allocatorIcEEEEPN4Pika6ScriptINS9_9StdConfigEE6NativeEEENS_19__map_value_compareIS8_SF_NS_4lessIS8_EELb1EEENS5_ISF_EEE7destroyEPNS_11__tree_nodeISF_PvEE, symObjAddr: 0x38D28, symBinAddr: 0x10008D750, symSize: 0x130 }
  - { offset: 0xC9D7F, size: 0x8, addend: 0x0, symName: __ZNSt3__16__treeINS_12__value_typeIKNS_12basic_stringIcNS_11char_traitsIcEENS_9allocatorIcEEEEN4Pika8STLValueIS7_EEEENS_19__map_value_compareIS8_SC_NS_4lessIS8_EELb1EEENS5_ISC_EEE7destroyEPNS_11__tree_nodeISC_PvEE, symObjAddr: 0x38AFC, symBinAddr: 0x10008D524, symSize: 0xEC }
  - { offset: 0xC9EC4, size: 0x8, addend: 0x0, symName: __ZN4Pika6ScriptINS_9StdConfigEE8FullRootC1Eb, symObjAddr: 0x277B8, symBinAddr: 0x10007DA38, symSize: 0x14 }
  - { offset: 0xC9F8F, size: 0x8, addend: 0x0, symName: __ZN4Pika6ScriptINS_9StdConfigEE12STLVariables6lookupERKNSt3__112basic_stringIcNS4_11char_traitsIcEENS4_9allocatorIcEEEERNS_8STLValueISA_EE, symObjAddr: 0x277CC, symBinAddr: 0x10007DA4C, symSize: 0x88 }
  - { offset: 0xCA0A6, size: 0x8, addend: 0x0, symName: __ZNSt3__16__treeINS_12__value_typeIKNS_12basic_stringIcNS_11char_traitsIcEENS_9allocatorIcEEEEN4Pika8STLValueIS7_EEEENS_19__map_value_compareIS8_SC_NS_4lessIS8_EELb1EEENS5_ISC_EEE4findIS7_EENS_15__tree_iteratorISC_PNS_11__tree_nodeISC_PvEElEERKT_, symObjAddr: 0x43D28, symBinAddr: 0x1000984EC, symSize: 0x168 }
  - { offset: 0xCA23B, size: 0x8, addend: 0x0, symName: __ZNSt3__16__treeINS_12__value_typeIKNS_12basic_stringIcNS_11char_traitsIcEENS_9allocatorIcEEEEN4Pika8STLValueIS7_EEEENS_19__map_value_compareIS8_SC_NS_4lessIS8_EELb1EEENS5_ISC_EEE12__find_equalIS7_EERPNS_16__tree_node_baseIPvEERPNS_15__tree_end_nodeISN_EERKT_, symObjAddr: 0x440E8, symBinAddr: 0x1000988AC, symSize: 0x18C }
  - { offset: 0xCA361, size: 0x8, addend: 0x0, symName: __ZNSt3__13mapIKNS_12basic_stringIcNS_11char_traitsIcEENS_9allocatorIcEEEEN4Pika8STLValueIS6_EENS_4lessIS7_EENS4_INS_4pairIS7_SA_EEEEE25__construct_node_with_keyERS7_, symObjAddr: 0x44274, symBinAddr: 0x100098A38, symSize: 0x24C }
  - { offset: 0xCA643, size: 0x8, addend: 0x0, symName: __ZNSt3__16__treeINS_12__value_typeIKNS_12basic_stringIcNS_11char_traitsIcEENS_9allocatorIcEEEEN4Pika8STLValueIS7_EEEENS_19__map_value_compareIS8_SC_NS_4lessIS8_EELb1EEENS5_ISC_EEE16__insert_node_atEPNS_15__tree_end_nodeIPNS_16__tree_node_baseIPvEEEERSN_SN_, symObjAddr: 0x444C0, symBinAddr: 0x100098C84, symSize: 0x15C }
  - { offset: 0xCA70D, size: 0x8, addend: 0x0, symName: __ZN4Pika6ScriptINS_9StdConfigEE12STLVariables5eraseERKNSt3__112basic_stringIcNS4_11char_traitsIcEENS4_9allocatorIcEEEE, symObjAddr: 0x27920, symBinAddr: 0x10007DBA0, symSize: 0x48 }
  - { offset: 0xCA778, size: 0x8, addend: 0x0, symName: __ZNSt3__16__treeINS_12__value_typeIKNS_12basic_stringIcNS_11char_traitsIcEENS_9allocatorIcEEEEN4Pika8STLValueIS7_EEEENS_19__map_value_compareIS8_SC_NS_4lessIS8_EELb1EEENS5_ISC_EEE14__erase_uniqueIS7_EEmRKT_, symObjAddr: 0x452A4, symBinAddr: 0x100098FC8, symSize: 0x88 }
  - { offset: 0xCAAF3, size: 0x8, addend: 0x0, symName: __ZN4Pika6ScriptINS_9StdConfigEE12STLVariables4listERKNSt3__112basic_stringIcNS4_11char_traitsIcEENS4_9allocatorIcEEEERNS4_6vectorINS4_4pairISA_NS_8STLValueISA_EEEENS8_ISH_EEEE, symObjAddr: 0x27968, symBinAddr: 0x10007DBE8, symSize: 0x75C }
  - { offset: 0xCB278, size: 0x8, addend: 0x0, symName: __ZNKSt3__14lessIKNS_12basic_stringIcNS_11char_traitsIcEENS_9allocatorIcEEEEEclB8ne200100ERS7_S9_, symObjAddr: 0x43E90, symBinAddr: 0x100098654, symSize: 0x258 }
  - { offset: 0xCB529, size: 0x8, addend: 0x0, symName: __ZNSt3__14pairINS_12basic_stringIcNS_11char_traitsIcEENS_9allocatorIcEEEEN4Pika8STLValueIS6_EEEC2B8ne200100IKS6_S9_EERKNS0_IT_T0_EE, symObjAddr: 0x480E8, symBinAddr: 0x10009A5CC, symSize: 0x234 }
  - { offset: 0xCB79E, size: 0x8, addend: 0x0, symName: __ZNSt3__16vectorINS_4pairINS_12basic_stringIcNS_11char_traitsIcEENS_9allocatorIcEEEEN4Pika8STLValueIS7_EEEENS5_ISB_EEE9push_backB8ne200100EOSB_, symObjAddr: 0x280C4, symBinAddr: 0x10007E344, symSize: 0xCC }
  - { offset: 0xCB81B, size: 0x8, addend: 0x0, symName: __ZNSt3__14pairINS_12basic_stringIcNS_11char_traitsIcEENS_9allocatorIcEEEEN4Pika8STLValueIS6_EEED1Ev, symObjAddr: 0x28190, symBinAddr: 0x10007E410, symSize: 0x13C }
  - { offset: 0xCBA79, size: 0x8, addend: 0x0, symName: __ZNSt3__16vectorINS_4pairINS_12basic_stringIcNS_11char_traitsIcEENS_9allocatorIcEEEEN4Pika8STLValueIS7_EEEENS5_ISB_EEE22__construct_one_at_endB8ne200100IJSB_EEEvDpOT_, symObjAddr: 0x46D24, symBinAddr: 0x100099208, symSize: 0x120 }
  - { offset: 0xCBC0C, size: 0x8, addend: 0x0, symName: __ZNSt3__16vectorINS_4pairINS_12basic_stringIcNS_11char_traitsIcEENS_9allocatorIcEEEEN4Pika8STLValueIS7_EEEENS5_ISB_EEE24__emplace_back_slow_pathIJSB_EEEPSB_DpOT_, symObjAddr: 0x46E44, symBinAddr: 0x100099328, symSize: 0x414 }
  - { offset: 0xCBF0E, size: 0x8, addend: 0x0, symName: __ZN4Pika6ScriptINS_9StdConfigEE12STLVariables12lookupNativeERKNSt3__112basic_stringIcNS4_11char_traitsIcEENS4_9allocatorIcEEEE, symObjAddr: 0x282CC, symBinAddr: 0x10007E54C, symSize: 0x90 }
  - { offset: 0xCBFCB, size: 0x8, addend: 0x0, symName: __ZNSt3__16__treeINS_12__value_typeIKNS_12basic_stringIcNS_11char_traitsIcEENS_9allocatorIcEEEEPN4Pika6ScriptINS9_9StdConfigEE6NativeEEENS_19__map_value_compareIS8_SF_NS_4lessIS8_EELb1EEENS5_ISF_EEE4findIS7_EENS_15__tree_iteratorISF_PNS_11__tree_nodeISF_PvEElEERKT_, symObjAddr: 0x4831C, symBinAddr: 0x10009A800, symSize: 0x168 }
  - { offset: 0xCC1FC, size: 0x8, addend: 0x0, symName: __ZN4Pika6ScriptINS_9StdConfigEE12STLVariables12assignNativeERKNSt3__112basic_stringIcNS4_11char_traitsIcEENS4_9allocatorIcEEEEPNS2_6NativeE, symObjAddr: 0x2835C, symBinAddr: 0x10007E5DC, symSize: 0x39C }
  - { offset: 0xCC570, size: 0x8, addend: 0x0, symName: __ZNSt3__16__treeINS_12__value_typeIKNS_12basic_stringIcNS_11char_traitsIcEENS_9allocatorIcEEEEPN4Pika6ScriptINS9_9StdConfigEE6NativeEEENS_19__map_value_compareIS8_SF_NS_4lessIS8_EELb1EEENS5_ISF_EEE25__emplace_unique_key_argsIS7_JRKNS_4pairIS8_SE_EEEEENSN_INS_15__tree_iteratorISF_PNS_11__tree_nodeISF_PvEElEEbEERKT_DpOT0_, symObjAddr: 0x48484, symBinAddr: 0x10009A968, symSize: 0xD0 }
  - { offset: 0xCC6CA, size: 0x8, addend: 0x0, symName: __ZN4Pika6ScriptINS_9StdConfigEE12STLVariablesD0Ev, symObjAddr: 0x286F8, symBinAddr: 0x10007E978, symSize: 0x68 }
  - { offset: 0xCC7AD, size: 0x8, addend: 0x0, symName: __ZN4Pika6ScriptINS_9StdConfigEE16getThisAndMethodERNS2_5FrameE, symObjAddr: 0x28760, symBinAddr: 0x10007E9E0, symSize: 0x964 }
  - { offset: 0xCDA42, size: 0x8, addend: 0x0, symName: __ZNSt3__14pairIN4Pika8STLValueINS_12basic_stringIcNS_11char_traitsIcEENS_9allocatorIcEEEEEES8_EC2B8ne200100ERKS9_RKS8_, symObjAddr: 0x48B94, symBinAddr: 0x10009B078, symSize: 0x234 }
  - { offset: 0xCDCFE, size: 0x8, addend: 0x0, symName: __ZN4Pika6ScriptINS_9StdConfigEE7getThisERNS2_5FrameE, symObjAddr: 0x290C4, symBinAddr: 0x10007F344, symSize: 0x2A4 }
  - { offset: 0xCDFCB, size: 0x8, addend: 0x0, symName: __ZNSt3__14pairIN4Pika8STLValueINS_12basic_stringIcNS_11char_traitsIcEENS_9allocatorIcEEEEEES8_ED1Ev, symObjAddr: 0x29368, symBinAddr: 0x10007F5E8, symSize: 0x13C }
  - { offset: 0xCE1EA, size: 0x8, addend: 0x0, symName: __ZN4Pika6ScriptINS_9StdConfigEE9getMethodERNS2_5FrameE, symObjAddr: 0x294A4, symBinAddr: 0x10007F724, symSize: 0x294 }
  - { offset: 0xCE48F, size: 0x8, addend: 0x0, symName: __ZN4Pika6ScriptINS_9StdConfigEE3lib7elevateERNS2_5FrameE, symObjAddr: 0x29738, symBinAddr: 0x10007F9B8, symSize: 0x34C }
  - { offset: 0xCE9B0, size: 0x8, addend: 0x0, symName: __ZN4Pika6ScriptINS_9StdConfigEE3lib9characterEd, symObjAddr: 0x29A84, symBinAddr: 0x10007FD04, symSize: 0x478 }
  - { offset: 0xCEE57, size: 0x8, addend: 0x0, symName: __ZN4Pika6ScriptINS_9StdConfigEE3lib7deleterERKNS2_5FrameE, symObjAddr: 0x2ACE4, symBinAddr: 0x100080F64, symSize: 0x454 }
  - { offset: 0xCF56B, size: 0x8, addend: 0x0, symName: __ZN4Pika6ScriptINS_9StdConfigEE3lib8evaluateERKNS2_5FrameE, symObjAddr: 0x2B138, symBinAddr: 0x1000813B8, symSize: 0x734 }
  - { offset: 0xD0431, size: 0x8, addend: 0x0, symName: __ZN4Pika6ScriptINS_9StdConfigEE3lib6existsERKNS2_5FrameE, symObjAddr: 0x2B86C, symBinAddr: 0x100081AEC, symSize: 0x504 }
  - { offset: 0xD0D89, size: 0x8, addend: 0x0, symName: __ZN4Pika6ScriptINS_9StdConfigEE3lib4findERKNSt3__112basic_stringIcNS4_11char_traitsIcEENS4_9allocatorIcEEEESC_, symObjAddr: 0x2BD70, symBinAddr: 0x100081FF0, symSize: 0x338 }
  - { offset: 0xD1164, size: 0x8, addend: 0x0, symName: __ZN4Pika6ScriptINS_9StdConfigEE3lib7foreachERNS2_5FrameE, symObjAddr: 0x2C0A8, symBinAddr: 0x100082328, symSize: 0xEC8 }
  - { offset: 0xD2E2E, size: 0x8, addend: 0x0, symName: __ZNSt3__16vectorINS_4pairINS_12basic_stringIcNS_11char_traitsIcEENS_9allocatorIcEEEEN4Pika8STLValueIS7_EEEENS5_ISB_EEE16__destroy_vectorclB8ne200100Ev, symObjAddr: 0x48FAC, symBinAddr: 0x10009B2AC, symSize: 0x148 }
  - { offset: 0xD30A3, size: 0x8, addend: 0x0, symName: __ZN4Pika6ScriptINS_9StdConfigEE3lib5inputERKNSt3__112basic_stringIcNS4_11char_traitsIcEENS4_9allocatorIcEEEE, symObjAddr: 0x2CF70, symBinAddr: 0x1000831F0, symSize: 0x7F8 }
  - { offset: 0xD39FB, size: 0x8, addend: 0x0, symName: __ZN4Pika6ScriptINS_9StdConfigEE3lib6invokeERNS2_5FrameE, symObjAddr: 0x2D768, symBinAddr: 0x1000839E8, symSize: 0x14C0 }
  - { offset: 0xD6928, size: 0x8, addend: 0x0, symName: __ZNSt3__16vectorIN4Pika8STLValueINS_12basic_stringIcNS_11char_traitsIcEENS_9allocatorIcEEEEEENS6_IS9_EEEC2B8ne200100Em, symObjAddr: 0x4A5BC, symBinAddr: 0x10009B4DC, symSize: 0xF0 }
  - { offset: 0xD6A6C, size: 0x8, addend: 0x0, symName: __ZNK4Pika8STLValueINSt3__112basic_stringIcNS1_11char_traitsIcEENS1_9allocatorIcEEEEEixIlEEKS8_RKT_, symObjAddr: 0x2EC28, symBinAddr: 0x100084EA8, symSize: 0x24C }
  - { offset: 0xD6CDF, size: 0x8, addend: 0x0, symName: __ZNSt3__16vectorIN4Pika8STLValueINS_12basic_stringIcNS_11char_traitsIcEENS_9allocatorIcEEEEEENS6_IS9_EEE16__destroy_vectorclB8ne200100Ev, symObjAddr: 0x4ABC8, symBinAddr: 0x10009BAE8, symSize: 0xF8 }
  - { offset: 0xD6DA8, size: 0x8, addend: 0x0, symName: __ZN4Pika6ScriptINS_9StdConfigEE3lib6lengthERKNSt3__112basic_stringIcNS4_11char_traitsIcEENS4_9allocatorIcEEEE, symObjAddr: 0x2EE74, symBinAddr: 0x1000850F4, symSize: 0xBC }
  - { offset: 0xD7092, size: 0x8, addend: 0x0, symName: __ZN4Pika6ScriptINS_9StdConfigEE3lib4loadERKNSt3__112basic_stringIcNS4_11char_traitsIcEENS4_9allocatorIcEEEE, symObjAddr: 0x2EF30, symBinAddr: 0x1000851B0, symSize: 0xD58 }
  - { offset: 0xD82E9, size: 0x8, addend: 0x0, symName: __ZN4Pika6ScriptINS_9StdConfigEE3lib5lowerENSt3__112basic_stringIcNS4_11char_traitsIcEENS4_9allocatorIcEEEE, symObjAddr: 0x301D0, symBinAddr: 0x100085F08, symSize: 0x2E4 }
  - { offset: 0xD8596, size: 0x8, addend: 0x0, symName: __ZN4Pika6ScriptINS_9StdConfigEE3lib8mismatchERKNSt3__112basic_stringIcNS4_11char_traitsIcEENS4_9allocatorIcEEEESC_, symObjAddr: 0x304B4, symBinAddr: 0x1000861EC, symSize: 0x548 }
  - { offset: 0xD8A9F, size: 0x8, addend: 0x0, symName: __ZN4Pika6ScriptINS_9StdConfigEE3lib7ordinalERKNSt3__112basic_stringIcNS4_11char_traitsIcEENS4_9allocatorIcEEEE, symObjAddr: 0x309FC, symBinAddr: 0x100086734, symSize: 0x4FC }
  - { offset: 0xD8E5D, size: 0x8, addend: 0x0, symName: __ZN4Pika6ScriptINS_9StdConfigEE3lib5parseERNS2_5FrameE, symObjAddr: 0x30EF8, symBinAddr: 0x100086C30, symSize: 0x670 }
  - { offset: 0xD9A38, size: 0x8, addend: 0x0, symName: __ZN4Pika6ScriptINS_9StdConfigEE3lib9precisionERKNS2_5FrameE, symObjAddr: 0x31568, symBinAddr: 0x1000872A0, symSize: 0x558 }
  - { offset: 0xDA326, size: 0x8, addend: 0x0, symName: __ZN4Pika6ScriptINS_9StdConfigEE3lib5printERKNSt3__112basic_stringIcNS4_11char_traitsIcEENS4_9allocatorIcEEEE, symObjAddr: 0x31AC0, symBinAddr: 0x1000877F8, symSize: 0x490 }
  - { offset: 0xDA745, size: 0x8, addend: 0x0, symName: __ZN4Pika6ScriptINS_9StdConfigEE3lib5radixERKNS2_5FrameE, symObjAddr: 0x31F50, symBinAddr: 0x100087C88, symSize: 0xE4C }
  - { offset: 0xDC240, size: 0x8, addend: 0x0, symName: __ZN4Pika6ScriptINS_9StdConfigEE3lib6randomEd, symObjAddr: 0x334A4, symBinAddr: 0x1000891DC, symSize: 0x44 }
  - { offset: 0xDC2D3, size: 0x8, addend: 0x0, symName: __ZN4Pika6ScriptINS_9StdConfigEE3lib7reverseENSt3__112basic_stringIcNS4_11char_traitsIcEENS4_9allocatorIcEEEE, symObjAddr: 0x334E8, symBinAddr: 0x100089220, symSize: 0x290 }
  - { offset: 0xDC569, size: 0x8, addend: 0x0, symName: __ZN4Pika6ScriptINS_9StdConfigEE3lib4saveERKNSt3__112basic_stringIcNS4_11char_traitsIcEENS4_9allocatorIcEEEESC_, symObjAddr: 0x33778, symBinAddr: 0x1000894B0, symSize: 0xB28 }
  - { offset: 0xDD214, size: 0x8, addend: 0x0, symName: __ZN4Pika6ScriptINS_9StdConfigEE3lib6systemERKNSt3__112basic_stringIcNS4_11char_traitsIcEENS4_9allocatorIcEEEE, symObjAddr: 0x347CC, symBinAddr: 0x100089FD8, symSize: 0x640 }
  - { offset: 0xDD920, size: 0x8, addend: 0x0, symName: __ZN4Pika6ScriptINS_9StdConfigEE3lib6searchERKNSt3__112basic_stringIcNS4_11char_traitsIcEENS4_9allocatorIcEEEESC_, symObjAddr: 0x34E0C, symBinAddr: 0x10008A618, symSize: 0x230 }
  - { offset: 0xDDBB8, size: 0x8, addend: 0x0, symName: __ZN4Pika6ScriptINS_9StdConfigEE3lib4spanERKNSt3__112basic_stringIcNS4_11char_traitsIcEENS4_9allocatorIcEEEESC_, symObjAddr: 0x3503C, symBinAddr: 0x10008A848, symSize: 0x394 }
  - { offset: 0xDDF15, size: 0x8, addend: 0x0, symName: __ZN4Pika6ScriptINS_9StdConfigEE3lib7throwerERKNSt3__112basic_stringIcNS4_11char_traitsIcEENS4_9allocatorIcEEEE, symObjAddr: 0x353D0, symBinAddr: 0x10008ABDC, symSize: 0x84 }
  - { offset: 0xDDF51, size: 0x8, addend: 0x0, symName: __ZN4Pika6ScriptINS_9StdConfigEE3lib4timeERKNS2_5FrameE, symObjAddr: 0x35454, symBinAddr: 0x10008AC60, symSize: 0x3C }
  - { offset: 0xDDFEB, size: 0x8, addend: 0x0, symName: __ZN4Pika6ScriptINS_9StdConfigEE3lib5traceERKNS2_5FrameE, symObjAddr: 0x35490, symBinAddr: 0x10008AC9C, symSize: 0x674 }
  - { offset: 0xDEBD4, size: 0x8, addend: 0x0, symName: __ZN4Pika6ScriptINS_9StdConfigEE3lib5tryerERNS2_5FrameE, symObjAddr: 0x35B04, symBinAddr: 0x10008B310, symSize: 0x624 }
  - { offset: 0xDF5D6, size: 0x8, addend: 0x0, symName: __ZN4Pika6ScriptINS_9StdConfigEE3lib5upperENSt3__112basic_stringIcNS4_11char_traitsIcEENS4_9allocatorIcEEEE, symObjAddr: 0x36128, symBinAddr: 0x10008B934, symSize: 0x2E4 }
  - { offset: 0xDF85D, size: 0x8, addend: 0x0, symName: __ZN4Pika6ScriptINS_9StdConfigEE4RootD1Ev, symObjAddr: 0x3640C, symBinAddr: 0x10008BC18, symSize: 0x180 }
  - { offset: 0xDFAA5, size: 0x8, addend: 0x0, symName: __ZN4Pika6ScriptINS_9StdConfigEE4RootD0Ev, symObjAddr: 0x3658C, symBinAddr: 0x10008BD98, symSize: 0x180 }
  - { offset: 0xDFD23, size: 0x8, addend: 0x0, symName: __ZN4Pika6ScriptINS_9StdConfigEE8FullRootD1Ev, symObjAddr: 0x3670C, symBinAddr: 0x10008BF18, symSize: 0x1CC }
  - { offset: 0xDFFA4, size: 0x8, addend: 0x0, symName: __ZN4Pika6ScriptINS_9StdConfigEE8FullRootD0Ev, symObjAddr: 0x368D8, symBinAddr: 0x10008C0E4, symSize: 0x1D4 }
  - { offset: 0xE0241, size: 0x8, addend: 0x0, symName: __ZThn152_N4Pika6ScriptINS_9StdConfigEE8FullRootD1Ev, symObjAddr: 0x36AAC, symBinAddr: 0x10008C2B8, symSize: 0x1DC }
  - { offset: 0xE04D5, size: 0x8, addend: 0x0, symName: __ZThn152_N4Pika6ScriptINS_9StdConfigEE8FullRootD0Ev, symObjAddr: 0x36C88, symBinAddr: 0x10008C494, symSize: 0x1DC }
  - { offset: 0xE0841, size: 0x8, addend: 0x0, symName: __ZN4Pika9ExceptionINSt3__112basic_stringIcNS1_11char_traitsIcEENS1_9allocatorIcEEEEED0Ev, symObjAddr: 0x37474, symBinAddr: 0x10008C7C8, symSize: 0x24 }
  - { offset: 0xE08A9, size: 0x8, addend: 0x0, symName: __ZNK4Pika9ExceptionINSt3__112basic_stringIcNS1_11char_traitsIcEENS1_9allocatorIcEEEEE4whatEv, symObjAddr: 0x37498, symBinAddr: 0x10008C7EC, symSize: 0x340 }
  - { offset: 0xE0B9E, size: 0x8, addend: 0x0, symName: __ZNK4Pika9ExceptionINSt3__112basic_stringIcNS1_11char_traitsIcEENS1_9allocatorIcEEEEE8getErrorEv, symObjAddr: 0x377D8, symBinAddr: 0x10008CB2C, symSize: 0x11C }
  - { offset: 0xE0E4D, size: 0x8, addend: 0x0, symName: __ZNSt12out_of_rangeC1B8ne200100EPKc, symObjAddr: 0x39888, symBinAddr: 0x10008E04C, symSize: 0x5C }
  - { offset: 0xE0ED0, size: 0x8, addend: 0x0, symName: __ZN4Pika6ScriptINS_9StdConfigEE5Frame8binaryOpINSt3__14plusIdEEEEbRNS5_11__wrap_iterIPKcEERKSB_RNS5_4pairIbNS_8STLValueINS5_12basic_stringIcNS5_11char_traitsIcEENS5_9allocatorIcEEEEEEEEbNS_10PrecedenceEiSQ_T_, symObjAddr: 0x3BEFC, symBinAddr: 0x1000906C0, symSize: 0x824 }
  - { offset: 0xE1E02, size: 0x8, addend: 0x0, symName: __ZN4Pika6ScriptINS_9StdConfigEE5Frame8binaryOpINSt3__15minusIdEEEEbRNS5_11__wrap_iterIPKcEERKSB_RNS5_4pairIbNS_8STLValueINS5_12basic_stringIcNS5_11char_traitsIcEENS5_9allocatorIcEEEEEEEEbNS_10PrecedenceEiSQ_T_, symObjAddr: 0x3D0CC, symBinAddr: 0x100091890, symSize: 0x824 }
  - { offset: 0xE2D34, size: 0x8, addend: 0x0, symName: __ZN4Pika6ScriptINS_9StdConfigEE5Frame8binaryOpIPFmmiEEEbRNSt3__111__wrap_iterIPKcEERKSB_RNS7_4pairIbNS_8STLValueINS7_12basic_stringIcNS7_11char_traitsIcEENS7_9allocatorIcEEEEEEEEbNS_10PrecedenceEiSQ_T_, symObjAddr: 0x41D3C, symBinAddr: 0x100096500, symSize: 0x85C }
  - { offset: 0xE3CE5, size: 0x8, addend: 0x0, symName: __ZNK4Pika8STLValueINSt3__112basic_stringIcNS1_11char_traitsIcEENS1_9allocatorIcEEEEEltERKS8_, symObjAddr: 0x42598, symBinAddr: 0x100096D5C, symSize: 0x2BC }
  - { offset: 0xE4429, size: 0x8, addend: 0x0, symName: __ZNSt3__121__map_node_destructorINS_9allocatorINS_11__tree_nodeINS_12__value_typeIKNS_12basic_stringIcNS_11char_traitsIcEENS1_IcEEEEN4Pika8STLValueIS8_EEEEPvEEEEEclB8ne200100EPSF_, symObjAddr: 0x450BC, symBinAddr: 0x100098DE0, symSize: 0x1E8 }
  - { offset: 0xE4853, size: 0x8, addend: 0x0, symName: __ZNSt3__16__treeINS_12__value_typeIKNS_12basic_stringIcNS_11char_traitsIcEENS_9allocatorIcEEEEN4Pika8STLValueIS7_EEEENS_19__map_value_compareIS8_SC_NS_4lessIS8_EELb1EEENS5_ISC_EEE21__remove_node_pointerEPNS_11__tree_nodeISC_PvEE, symObjAddr: 0x4532C, symBinAddr: 0x100099050, symSize: 0x1B8 }
  - { offset: 0xE4ABC, size: 0x8, addend: 0x0, symName: __ZNKSt3__16vectorINS_4pairINS_12basic_stringIcNS_11char_traitsIcEENS_9allocatorIcEEEEN4Pika8STLValueIS7_EEEENS5_ISB_EEE19__annotate_increaseB8ne200100Em, symObjAddr: 0x47258, symBinAddr: 0x10009973C, symSize: 0xE4 }
  - { offset: 0xE4B98, size: 0x8, addend: 0x0, symName: __ZNSt3__14pairINS_12basic_stringIcNS_11char_traitsIcEENS_9allocatorIcEEEEN4Pika8STLValueIS6_EEEC2B8ne200100EOSA_, symObjAddr: 0x4733C, symBinAddr: 0x100099820, symSize: 0x234 }
  - { offset: 0xE4DF8, size: 0x8, addend: 0x0, symName: __ZNKSt3__16vectorINS_4pairINS_12basic_stringIcNS_11char_traitsIcEENS_9allocatorIcEEEEN4Pika8STLValueIS7_EEEENS5_ISB_EEE17__annotate_shrinkB8ne200100Em, symObjAddr: 0x47570, symBinAddr: 0x100099A54, symSize: 0xE4 }
  - { offset: 0xE4FF1, size: 0x8, addend: 0x0, symName: __ZNSt3__16vectorINS_4pairINS_12basic_stringIcNS_11char_traitsIcEENS_9allocatorIcEEEEN4Pika8STLValueIS7_EEEENS5_ISB_EEE26__swap_out_circular_bufferERNS_14__split_bufferISB_RSC_EE, symObjAddr: 0x47654, symBinAddr: 0x100099B38, symSize: 0x1C8 }
  - { offset: 0xE510C, size: 0x8, addend: 0x0, symName: __ZNSt3__114__split_bufferINS_4pairINS_12basic_stringIcNS_11char_traitsIcEENS_9allocatorIcEEEEN4Pika8STLValueIS7_EEEERNS5_ISB_EEED2Ev, symObjAddr: 0x47F44, symBinAddr: 0x10009A428, symSize: 0xA8 }
  - { offset: 0xE51F3, size: 0x8, addend: 0x0, symName: __ZNSt3__16vectorINS_4pairINS_12basic_stringIcNS_11char_traitsIcEENS_9allocatorIcEEEEN4Pika8STLValueIS7_EEEENS5_ISB_EEE20__throw_length_errorB8ne200100Ev, symObjAddr: 0x4781C, symBinAddr: 0x100099D00, symSize: 0x18 }
  - { offset: 0xE520B, size: 0x8, addend: 0x0, symName: __ZNSt3__119__allocate_at_leastB8ne200100INS_9allocatorINS_4pairINS_12basic_stringIcNS_11char_traitsIcEENS1_IcEEEEN4Pika8STLValueIS7_EEEEEEEENS_19__allocation_resultINS_16allocator_traitsIT_E7pointerEEERSF_m, symObjAddr: 0x47834, symBinAddr: 0x100099D18, symSize: 0x80 }
  - { offset: 0xE5279, size: 0x8, addend: 0x0, symName: __ZNKSt3__16vectorINS_4pairINS_12basic_stringIcNS_11char_traitsIcEENS_9allocatorIcEEEEN4Pika8STLValueIS7_EEEENS5_ISB_EEE17__annotate_deleteB8ne200100Ev, symObjAddr: 0x478B4, symBinAddr: 0x100099D98, symSize: 0xE0 }
  - { offset: 0xE5345, size: 0x8, addend: 0x0, symName: __ZNKSt3__16vectorINS_4pairINS_12basic_stringIcNS_11char_traitsIcEENS_9allocatorIcEEEEN4Pika8STLValueIS7_EEEENS5_ISB_EEE14__annotate_newB8ne200100Em, symObjAddr: 0x47B04, symBinAddr: 0x100099FE8, symSize: 0xCC }
  - { offset: 0xE5564, size: 0x8, addend: 0x0, symName: __ZNSt3__14pairINS_12basic_stringIcNS_11char_traitsIcEENS_9allocatorIcEEEEN4Pika8STLValueIS6_EEEC2B8ne200100ERKSA_, symObjAddr: 0x47BD0, symBinAddr: 0x10009A0B4, symSize: 0x234 }
  - { offset: 0xE57C4, size: 0x8, addend: 0x0, symName: __ZNSt3__19allocatorINS_4pairINS_12basic_stringIcNS_11char_traitsIcEENS0_IcEEEEN4Pika8STLValueIS6_EEEEE7destroyB8ne200100EPSA_, symObjAddr: 0x47E04, symBinAddr: 0x10009A2E8, symSize: 0x140 }
  - { offset: 0xE5A75, size: 0x8, addend: 0x0, symName: __ZNSt3__114__split_bufferINS_4pairINS_12basic_stringIcNS_11char_traitsIcEENS_9allocatorIcEEEEN4Pika8STLValueIS7_EEEERNS5_ISB_EEE17__destruct_at_endB8ne200100EPSB_, symObjAddr: 0x47FEC, symBinAddr: 0x10009A4D0, symSize: 0xFC }
  - { offset: 0xE5C40, size: 0x8, addend: 0x0, symName: __ZNSt3__16__treeINS_12__value_typeIKNS_12basic_stringIcNS_11char_traitsIcEENS_9allocatorIcEEEEPN4Pika6ScriptINS9_9StdConfigEE6NativeEEENS_19__map_value_compareIS8_SF_NS_4lessIS8_EELb1EEENS5_ISF_EEE12__find_equalIS7_EERPNS_16__tree_node_baseIPvEERPNS_15__tree_end_nodeISQ_EERKT_, symObjAddr: 0x48554, symBinAddr: 0x10009AA38, symSize: 0x18C }
  - { offset: 0xE5D66, size: 0x8, addend: 0x0, symName: __ZNSt3__16__treeINS_12__value_typeIKNS_12basic_stringIcNS_11char_traitsIcEENS_9allocatorIcEEEEPN4Pika6ScriptINS9_9StdConfigEE6NativeEEENS_19__map_value_compareIS8_SF_NS_4lessIS8_EELb1EEENS5_ISF_EEE16__construct_nodeIJRKNS_4pairIS8_SE_EEEEENS_10unique_ptrINS_11__tree_nodeISF_PvEENS_22__tree_node_destructorINS5_ISU_EEEEEEDpOT_, symObjAddr: 0x486E0, symBinAddr: 0x10009ABC4, symSize: 0x230 }
  - { offset: 0xE6031, size: 0x8, addend: 0x0, symName: __ZNSt3__16__treeINS_12__value_typeIKNS_12basic_stringIcNS_11char_traitsIcEENS_9allocatorIcEEEEPN4Pika6ScriptINS9_9StdConfigEE6NativeEEENS_19__map_value_compareIS8_SF_NS_4lessIS8_EELb1EEENS5_ISF_EEE16__insert_node_atEPNS_15__tree_end_nodeIPNS_16__tree_node_baseIPvEEEERSQ_SQ_, symObjAddr: 0x48910, symBinAddr: 0x10009ADF4, symSize: 0x15C }
  - { offset: 0xE6309, size: 0x8, addend: 0x0, symName: __ZNSt3__122__tree_node_destructorINS_9allocatorINS_11__tree_nodeINS_12__value_typeIKNS_12basic_stringIcNS_11char_traitsIcEENS1_IcEEEEPN4Pika6ScriptINSA_9StdConfigEE6NativeEEEPvEEEEEclB8ne200100EPSI_, symObjAddr: 0x48A6C, symBinAddr: 0x10009AF50, symSize: 0x128 }
  - { offset: 0xE6700, size: 0x8, addend: 0x0, symName: __ZNSt3__16vectorINS_4pairINS_12basic_stringIcNS_11char_traitsIcEENS_9allocatorIcEEEEN4Pika8STLValueIS7_EEEENS5_ISB_EEE22__base_destruct_at_endB8ne200100EPSB_, symObjAddr: 0x490F4, symBinAddr: 0x10009B3F4, symSize: 0xE8 }
  - { offset: 0xE6ADF, size: 0x8, addend: 0x0, symName: __ZNSt3__16vectorIN4Pika8STLValueINS_12basic_stringIcNS_11char_traitsIcEENS_9allocatorIcEEEEEENS6_IS9_EEE11__vallocateB8ne200100Em, symObjAddr: 0x4A6AC, symBinAddr: 0x10009B5CC, symSize: 0x100 }
  - { offset: 0xE6B62, size: 0x8, addend: 0x0, symName: __ZNSt3__16vectorIN4Pika8STLValueINS_12basic_stringIcNS_11char_traitsIcEENS_9allocatorIcEEEEEENS6_IS9_EEE18__construct_at_endEm, symObjAddr: 0x4A7AC, symBinAddr: 0x10009B6CC, symSize: 0xF0 }
  - { offset: 0xE6CAE, size: 0x8, addend: 0x0, symName: __ZNKSt3__16vectorIN4Pika8STLValueINS_12basic_stringIcNS_11char_traitsIcEENS_9allocatorIcEEEEEENS6_IS9_EEE14__annotate_newB8ne200100Em, symObjAddr: 0x4A934, symBinAddr: 0x10009B854, symSize: 0xCC }
  - { offset: 0xE6D7C, size: 0x8, addend: 0x0, symName: __ZNSt3__16vectorIN4Pika8STLValueINS_12basic_stringIcNS_11char_traitsIcEENS_9allocatorIcEEEEEENS6_IS9_EEE20__throw_length_errorB8ne200100Ev, symObjAddr: 0x4A89C, symBinAddr: 0x10009B7BC, symSize: 0x18 }
  - { offset: 0xE6D94, size: 0x8, addend: 0x0, symName: __ZNSt3__119__allocate_at_leastB8ne200100INS_9allocatorIN4Pika8STLValueINS_12basic_stringIcNS_11char_traitsIcEENS1_IcEEEEEEEEEENS_19__allocation_resultINS_16allocator_traitsIT_E7pointerEEERSD_m, symObjAddr: 0x4A8B4, symBinAddr: 0x10009B7D4, symSize: 0x80 }
  - { offset: 0xE6EC5, size: 0x8, addend: 0x0, symName: __ZNKSt3__16vectorIN4Pika8STLValueINS_12basic_stringIcNS_11char_traitsIcEENS_9allocatorIcEEEEEENS6_IS9_EEE19__annotate_increaseB8ne200100Em, symObjAddr: 0x4AA00, symBinAddr: 0x10009B920, symSize: 0xE4 }
  - { offset: 0xE701E, size: 0x8, addend: 0x0, symName: __ZNKSt3__16vectorIN4Pika8STLValueINS_12basic_stringIcNS_11char_traitsIcEENS_9allocatorIcEEEEEENS6_IS9_EEE17__annotate_shrinkB8ne200100Em, symObjAddr: 0x4AAE4, symBinAddr: 0x10009BA04, symSize: 0xE4 }
  - { offset: 0xE715A, size: 0x8, addend: 0x0, symName: __ZNSt3__16vectorIN4Pika8STLValueINS_12basic_stringIcNS_11char_traitsIcEENS_9allocatorIcEEEEEENS6_IS9_EEE5clearB8ne200100Ev, symObjAddr: 0x4ACC0, symBinAddr: 0x10009BBE0, symSize: 0x1A4 }
  - { offset: 0xE734D, size: 0x8, addend: 0x0, symName: __ZNKSt3__16vectorIN4Pika8STLValueINS_12basic_stringIcNS_11char_traitsIcEENS_9allocatorIcEEEEEENS6_IS9_EEE17__annotate_deleteB8ne200100Ev, symObjAddr: 0x4AE64, symBinAddr: 0x10009BD84, symSize: 0xE0 }
  - { offset: 0xE7509, size: 0x8, addend: 0x0, symName: __ZN4Pika6ScriptINS_9StdConfigEE12UnaryFunctorINSt3__125pointer_to_unary_functionIddEEddE8pikaCallERNS2_5FrameE, symObjAddr: 0x4B1AC, symBinAddr: 0x10009C0CC, symSize: 0x29C }
  - { offset: 0xE77E0, size: 0x8, addend: 0x0, symName: __ZN4Pika6ScriptINS_9StdConfigEE12UnaryFunctorINSt3__125pointer_to_unary_functionIddEEddE3argINS_4DumbIdEEEEKNS_8STLValueINS4_12basic_stringIcNS4_11char_traitsIcEENS4_9allocatorIcEEEEEERNS2_5FrameERKT_, symObjAddr: 0x4B470, symBinAddr: 0x10009C390, symSize: 0x238 }
  - { offset: 0xE7A3F, size: 0x8, addend: 0x0, symName: __ZN4Pika6ScriptINS_9StdConfigEE12UnaryFunctorINSt3__125pointer_to_unary_functionIddEEddED1Ev, symObjAddr: 0x4B448, symBinAddr: 0x10009C368, symSize: 0x14 }
  - { offset: 0xE7A6B, size: 0x8, addend: 0x0, symName: __ZN4Pika6ScriptINS_9StdConfigEE12UnaryFunctorINSt3__125pointer_to_unary_functionIddEEddED0Ev, symObjAddr: 0x4B45C, symBinAddr: 0x10009C37C, symSize: 0x14 }
  - { offset: 0xE7AAD, size: 0x8, addend: 0x0, symName: __ZN4Pika6ScriptINS_9StdConfigEE13BinaryFunctorINSt3__126pointer_to_binary_functionIdddEEdddE8pikaCallERNS2_5FrameE, symObjAddr: 0x4B6A8, symBinAddr: 0x10009C5C8, symSize: 0x4CC }
  - { offset: 0xE831A, size: 0x8, addend: 0x0, symName: __ZN4Pika6ScriptINS_9StdConfigEE13BinaryFunctorINSt3__126pointer_to_binary_functionIdddEEdddE4callINS_4DumbIdEEEENS_8STLValueINS4_12basic_stringIcNS4_11char_traitsIcEENS4_9allocatorIcEEEEEERKSI_SK_RKT_, symObjAddr: 0x4BB9C, symBinAddr: 0x10009CABC, symSize: 0x9C }
  - { offset: 0xE840A, size: 0x8, addend: 0x0, symName: __ZN4Pika6ScriptINS_9StdConfigEE13BinaryFunctorINSt3__126pointer_to_binary_functionIdddEEdddED1Ev, symObjAddr: 0x4BB74, symBinAddr: 0x10009CA94, symSize: 0x14 }
  - { offset: 0xE8436, size: 0x8, addend: 0x0, symName: __ZN4Pika6ScriptINS_9StdConfigEE13BinaryFunctorINSt3__126pointer_to_binary_functionIdddEEdddED0Ev, symObjAddr: 0x4BB88, symBinAddr: 0x10009CAA8, symSize: 0x14 }
  - { offset: 0xE84A9, size: 0x8, addend: 0x0, symName: __ZN4Pika6ScriptINS_9StdConfigEE12UnaryFunctorINSt3__125pointer_to_unary_functionIdNS4_12basic_stringIcNS4_11char_traitsIcEENS4_9allocatorIcEEEEEEdSB_E8pikaCallERNS2_5FrameE, symObjAddr: 0x4BC38, symBinAddr: 0x10009CB58, symSize: 0x240 }
  - { offset: 0xE8716, size: 0x8, addend: 0x0, symName: __ZN4Pika6ScriptINS_9StdConfigEE12UnaryFunctorINSt3__125pointer_to_unary_functionIdNS4_12basic_stringIcNS4_11char_traitsIcEENS4_9allocatorIcEEEEEEdSB_E3argINS_4DumbIdEEEEKNS_8STLValueISB_EERNS2_5FrameERKT_, symObjAddr: 0x4C144, symBinAddr: 0x10009D064, symSize: 0x238 }
  - { offset: 0xE8980, size: 0x8, addend: 0x0, symName: __ZN4Pika6ScriptINS_9StdConfigEE12UnaryFunctorINSt3__125pointer_to_unary_functionIdNS4_12basic_stringIcNS4_11char_traitsIcEENS4_9allocatorIcEEEEEEdSB_E4callIKNS_8STLValueISB_EESB_EESG_RT_RKNS_4DumbIT0_EE, symObjAddr: 0x4BEA0, symBinAddr: 0x10009CDC0, symSize: 0x2A4 }
  - { offset: 0xE8C45, size: 0x8, addend: 0x0, symName: __ZN4Pika6ScriptINS_9StdConfigEE12UnaryFunctorINSt3__125pointer_to_unary_functionIdNS4_12basic_stringIcNS4_11char_traitsIcEENS4_9allocatorIcEEEEEEdSB_ED1Ev, symObjAddr: 0x4BE78, symBinAddr: 0x10009CD98, symSize: 0x14 }
  - { offset: 0xE8C71, size: 0x8, addend: 0x0, symName: __ZN4Pika6ScriptINS_9StdConfigEE12UnaryFunctorINSt3__125pointer_to_unary_functionIdNS4_12basic_stringIcNS4_11char_traitsIcEENS4_9allocatorIcEEEEEEdSB_ED0Ev, symObjAddr: 0x4BE8C, symBinAddr: 0x10009CDAC, symSize: 0x14 }
  - { offset: 0xE8D48, size: 0x8, addend: 0x0, symName: __ZN4Pika6ScriptINS_9StdConfigEE12UnaryFunctorINSt3__125pointer_to_unary_functionIRKNS2_5FrameEbEES8_bE8pikaCallERS6_, symObjAddr: 0x4C37C, symBinAddr: 0x10009D29C, symSize: 0x78 }
  - { offset: 0xE8E09, size: 0x8, addend: 0x0, symName: __ZN4Pika6ScriptINS_9StdConfigEE12UnaryFunctorINSt3__125pointer_to_unary_functionIRKNS2_5FrameEbEES8_bED1Ev, symObjAddr: 0x4C3F4, symBinAddr: 0x10009D314, symSize: 0x14 }
  - { offset: 0xE8E35, size: 0x8, addend: 0x0, symName: __ZN4Pika6ScriptINS_9StdConfigEE12UnaryFunctorINSt3__125pointer_to_unary_functionIRKNS2_5FrameEbEES8_bED0Ev, symObjAddr: 0x4C408, symBinAddr: 0x10009D328, symSize: 0x14 }
  - { offset: 0xE8E77, size: 0x8, addend: 0x0, symName: __ZN4Pika6ScriptINS_9StdConfigEE12UnaryFunctorINSt3__125pointer_to_unary_functionIRKNS4_12basic_stringIcNS4_11char_traitsIcEENS4_9allocatorIcEEEESB_EESD_SB_E8pikaCallERNS2_5FrameE, symObjAddr: 0x4C41C, symBinAddr: 0x10009D33C, symSize: 0x240 }
  - { offset: 0xE90EF, size: 0x8, addend: 0x0, symName: __ZN4Pika6ScriptINS_9StdConfigEE12UnaryFunctorINSt3__125pointer_to_unary_functionIRKNS4_12basic_stringIcNS4_11char_traitsIcEENS4_9allocatorIcEEEESB_EESD_SB_E3argINS_4DumbISD_EEEEKNS_8STLValueISB_EERNS2_5FrameERKT_, symObjAddr: 0x4C910, symBinAddr: 0x10009D830, symSize: 0x238 }
  - { offset: 0xE934E, size: 0x8, addend: 0x0, symName: __ZN4Pika6ScriptINS_9StdConfigEE12UnaryFunctorINSt3__125pointer_to_unary_functionIRKNS4_12basic_stringIcNS4_11char_traitsIcEENS4_9allocatorIcEEEESB_EESD_SB_E4callIKNS_8STLValueISB_EESB_EESI_RT_RKNS_4DumbIT0_EE, symObjAddr: 0x4C684, symBinAddr: 0x10009D5A4, symSize: 0x28C }
  - { offset: 0xE9602, size: 0x8, addend: 0x0, symName: __ZN4Pika6ScriptINS_9StdConfigEE12UnaryFunctorINSt3__125pointer_to_unary_functionIRKNS4_12basic_stringIcNS4_11char_traitsIcEENS4_9allocatorIcEEEESB_EESD_SB_ED1Ev, symObjAddr: 0x4C65C, symBinAddr: 0x10009D57C, symSize: 0x14 }
  - { offset: 0xE962E, size: 0x8, addend: 0x0, symName: __ZN4Pika6ScriptINS_9StdConfigEE12UnaryFunctorINSt3__125pointer_to_unary_functionIRKNS4_12basic_stringIcNS4_11char_traitsIcEENS4_9allocatorIcEEEESB_EESD_SB_ED0Ev, symObjAddr: 0x4C670, symBinAddr: 0x10009D590, symSize: 0x14 }
  - { offset: 0xE9705, size: 0x8, addend: 0x0, symName: __ZN4Pika6ScriptINS_9StdConfigEE12UnaryFunctorINSt3__125pointer_to_unary_functionIRNS2_5FrameENS_8STLValueINS4_12basic_stringIcNS4_11char_traitsIcEENS4_9allocatorIcEEEEEEEES7_SF_E8pikaCallES7_, symObjAddr: 0x4CB48, symBinAddr: 0x10009DA68, symSize: 0x74 }
  - { offset: 0xE978F, size: 0x8, addend: 0x0, symName: __ZN4Pika6ScriptINS_9StdConfigEE12UnaryFunctorINSt3__125pointer_to_unary_functionIRNS2_5FrameENS_8STLValueINS4_12basic_stringIcNS4_11char_traitsIcEENS4_9allocatorIcEEEEEEEES7_SF_ED1Ev, symObjAddr: 0x4CBBC, symBinAddr: 0x10009DADC, symSize: 0x14 }
  - { offset: 0xE97BB, size: 0x8, addend: 0x0, symName: __ZN4Pika6ScriptINS_9StdConfigEE12UnaryFunctorINSt3__125pointer_to_unary_functionIRNS2_5FrameENS_8STLValueINS4_12basic_stringIcNS4_11char_traitsIcEENS4_9allocatorIcEEEEEEEES7_SF_ED0Ev, symObjAddr: 0x4CBD0, symBinAddr: 0x10009DAF0, symSize: 0x14 }
  - { offset: 0xE9861, size: 0x8, addend: 0x0, symName: __ZN4Pika6ScriptINS_9StdConfigEE12UnaryFunctorINSt3__125pointer_to_unary_functionIRKNS2_5FrameENS_8STLValueINS4_12basic_stringIcNS4_11char_traitsIcEENS4_9allocatorIcEEEEEEEES8_SG_E8pikaCallERS6_, symObjAddr: 0x4CBE4, symBinAddr: 0x10009DB04, symSize: 0x74 }
  - { offset: 0xE98EB, size: 0x8, addend: 0x0, symName: __ZN4Pika6ScriptINS_9StdConfigEE12UnaryFunctorINSt3__125pointer_to_unary_functionIRKNS2_5FrameENS_8STLValueINS4_12basic_stringIcNS4_11char_traitsIcEENS4_9allocatorIcEEEEEEEES8_SG_ED1Ev, symObjAddr: 0x4CC58, symBinAddr: 0x10009DB78, symSize: 0x14 }
  - { offset: 0xE9917, size: 0x8, addend: 0x0, symName: __ZN4Pika6ScriptINS_9StdConfigEE12UnaryFunctorINSt3__125pointer_to_unary_functionIRKNS2_5FrameENS_8STLValueINS4_12basic_stringIcNS4_11char_traitsIcEENS4_9allocatorIcEEEEEEEES8_SG_ED0Ev, symObjAddr: 0x4CC6C, symBinAddr: 0x10009DB8C, symSize: 0x14 }
  - { offset: 0xE99D7, size: 0x8, addend: 0x0, symName: __ZN4Pika6ScriptINS_9StdConfigEE13BinaryFunctorINSt3__126pointer_to_binary_functionIRKNS4_12basic_stringIcNS4_11char_traitsIcEENS4_9allocatorIcEEEESD_mEESD_SD_mE8pikaCallERNS2_5FrameE, symObjAddr: 0x4CC80, symBinAddr: 0x10009DBA0, symSize: 0x500 }
  - { offset: 0xEA296, size: 0x8, addend: 0x0, symName: __ZN4Pika6ScriptINS_9StdConfigEE13BinaryFunctorINSt3__126pointer_to_binary_functionIRKNS4_12basic_stringIcNS4_11char_traitsIcEENS4_9allocatorIcEEEESD_mEESD_SD_mED1Ev, symObjAddr: 0x4D180, symBinAddr: 0x10009E0A0, symSize: 0x14 }
  - { offset: 0xEA2C2, size: 0x8, addend: 0x0, symName: __ZN4Pika6ScriptINS_9StdConfigEE13BinaryFunctorINSt3__126pointer_to_binary_functionIRKNS4_12basic_stringIcNS4_11char_traitsIcEENS4_9allocatorIcEEEESD_mEESD_SD_mED0Ev, symObjAddr: 0x4D194, symBinAddr: 0x10009E0B4, symSize: 0x14 }
  - { offset: 0xEA35F, size: 0x8, addend: 0x0, symName: __ZN4Pika6ScriptINS_9StdConfigEE12UnaryFunctorINSt3__125pointer_to_unary_functionIRNS2_5FrameEvEES7_vE8pikaCallES7_, symObjAddr: 0x4D1A8, symBinAddr: 0x10009E0C8, symSize: 0x80 }
  - { offset: 0xEA42B, size: 0x8, addend: 0x0, symName: __ZN4Pika6ScriptINS_9StdConfigEE12UnaryFunctorINSt3__125pointer_to_unary_functionIRNS2_5FrameEvEES7_vED1Ev, symObjAddr: 0x4D228, symBinAddr: 0x10009E148, symSize: 0x14 }
  - { offset: 0xEA457, size: 0x8, addend: 0x0, symName: __ZN4Pika6ScriptINS_9StdConfigEE12UnaryFunctorINSt3__125pointer_to_unary_functionIRNS2_5FrameEvEES7_vED0Ev, symObjAddr: 0x4D23C, symBinAddr: 0x10009E15C, symSize: 0x14 }
  - { offset: 0xEA4FD, size: 0x8, addend: 0x0, symName: __ZN4Pika6ScriptINS_9StdConfigEE12UnaryFunctorINSt3__125pointer_to_unary_functionIRKNS4_12basic_stringIcNS4_11char_traitsIcEENS4_9allocatorIcEEEEmEESD_mE8pikaCallERNS2_5FrameE, symObjAddr: 0x4D250, symBinAddr: 0x10009E170, symSize: 0x274 }
  - { offset: 0xEA7BC, size: 0x8, addend: 0x0, symName: __ZN4Pika6ScriptINS_9StdConfigEE12UnaryFunctorINSt3__125pointer_to_unary_functionIRKNS4_12basic_stringIcNS4_11char_traitsIcEENS4_9allocatorIcEEEEmEESD_mE3argINS_4DumbISD_EEEEKNS_8STLValueISB_EERNS2_5FrameERKT_, symObjAddr: 0x4D4EC, symBinAddr: 0x10009E40C, symSize: 0x238 }
  - { offset: 0xEAA1B, size: 0x8, addend: 0x0, symName: __ZN4Pika6ScriptINS_9StdConfigEE12UnaryFunctorINSt3__125pointer_to_unary_functionIRKNS4_12basic_stringIcNS4_11char_traitsIcEENS4_9allocatorIcEEEEmEESD_mED1Ev, symObjAddr: 0x4D4C4, symBinAddr: 0x10009E3E4, symSize: 0x14 }
  - { offset: 0xEAA47, size: 0x8, addend: 0x0, symName: __ZN4Pika6ScriptINS_9StdConfigEE12UnaryFunctorINSt3__125pointer_to_unary_functionIRKNS4_12basic_stringIcNS4_11char_traitsIcEENS4_9allocatorIcEEEEmEESD_mED0Ev, symObjAddr: 0x4D4D8, symBinAddr: 0x10009E3F8, symSize: 0x14 }
  - { offset: 0xEAA89, size: 0x8, addend: 0x0, symName: __ZN4Pika6ScriptINS_9StdConfigEE12UnaryFunctorINSt3__125pointer_to_unary_functionINS4_12basic_stringIcNS4_11char_traitsIcEENS4_9allocatorIcEEEESB_EESB_SB_E8pikaCallERNS2_5FrameE, symObjAddr: 0x4D724, symBinAddr: 0x10009E644, symSize: 0x240 }
  - { offset: 0xEACF6, size: 0x8, addend: 0x0, symName: __ZN4Pika6ScriptINS_9StdConfigEE12UnaryFunctorINSt3__125pointer_to_unary_functionINS4_12basic_stringIcNS4_11char_traitsIcEENS4_9allocatorIcEEEESB_EESB_SB_E3argINS_4DumbISB_EEEEKNS_8STLValueISB_EERNS2_5FrameERKT_, symObjAddr: 0x4DD60, symBinAddr: 0x10009EC80, symSize: 0x238 }
  - { offset: 0xEAF55, size: 0x8, addend: 0x0, symName: __ZN4Pika6ScriptINS_9StdConfigEE12UnaryFunctorINSt3__125pointer_to_unary_functionINS4_12basic_stringIcNS4_11char_traitsIcEENS4_9allocatorIcEEEESB_EESB_SB_E4callIKNS_8STLValueISB_EESB_EESG_RT_RKNS_4DumbIT0_EE, symObjAddr: 0x4D98C, symBinAddr: 0x10009E8AC, symSize: 0x3D4 }
  - { offset: 0xEB436, size: 0x8, addend: 0x0, symName: __ZN4Pika6ScriptINS_9StdConfigEE12UnaryFunctorINSt3__125pointer_to_unary_functionINS4_12basic_stringIcNS4_11char_traitsIcEENS4_9allocatorIcEEEESB_EESB_SB_ED1Ev, symObjAddr: 0x4D964, symBinAddr: 0x10009E884, symSize: 0x14 }
  - { offset: 0xEB462, size: 0x8, addend: 0x0, symName: __ZN4Pika6ScriptINS_9StdConfigEE12UnaryFunctorINSt3__125pointer_to_unary_functionINS4_12basic_stringIcNS4_11char_traitsIcEENS4_9allocatorIcEEEESB_EESB_SB_ED0Ev, symObjAddr: 0x4D978, symBinAddr: 0x10009E898, symSize: 0x14 }
  - { offset: 0xEB4A4, size: 0x8, addend: 0x0, symName: __ZNKSt3__125pointer_to_unary_functionINS_12basic_stringIcNS_11char_traitsIcEENS_9allocatorIcEEEES6_EclB8ne200100ES6_, symObjAddr: 0x4DF98, symBinAddr: 0x10009EEB8, symSize: 0x2D4 }
  - { offset: 0xEB7BF, size: 0x8, addend: 0x0, symName: __ZN4Pika6ScriptINS_9StdConfigEE12UnaryFunctorINSt3__125pointer_to_unary_functionIRKNS4_12basic_stringIcNS4_11char_traitsIcEENS4_9allocatorIcEEEEjEESD_jE8pikaCallERNS2_5FrameE, symObjAddr: 0x4E26C, symBinAddr: 0x10009F18C, symSize: 0x274 }
  - { offset: 0xEBA7E, size: 0x8, addend: 0x0, symName: __ZN4Pika6ScriptINS_9StdConfigEE12UnaryFunctorINSt3__125pointer_to_unary_functionIRKNS4_12basic_stringIcNS4_11char_traitsIcEENS4_9allocatorIcEEEEjEESD_jE3argINS_4DumbISD_EEEEKNS_8STLValueISB_EERNS2_5FrameERKT_, symObjAddr: 0x4E508, symBinAddr: 0x10009F428, symSize: 0x238 }
  - { offset: 0xEBCDD, size: 0x8, addend: 0x0, symName: __ZN4Pika8STLValueINSt3__112basic_stringIcNS1_11char_traitsIcEENS1_9allocatorIcEEEEEC2Ej, symObjAddr: 0x4E740, symBinAddr: 0x10009F660, symSize: 0x270 }
  - { offset: 0xEBF39, size: 0x8, addend: 0x0, symName: __ZN4Pika6ScriptINS_9StdConfigEE12UnaryFunctorINSt3__125pointer_to_unary_functionIRKNS4_12basic_stringIcNS4_11char_traitsIcEENS4_9allocatorIcEEEEjEESD_jED1Ev, symObjAddr: 0x4E4E0, symBinAddr: 0x10009F400, symSize: 0x14 }
  - { offset: 0xEBF65, size: 0x8, addend: 0x0, symName: __ZN4Pika6ScriptINS_9StdConfigEE12UnaryFunctorINSt3__125pointer_to_unary_functionIRKNS4_12basic_stringIcNS4_11char_traitsIcEENS4_9allocatorIcEEEEjEESD_jED0Ev, symObjAddr: 0x4E4F4, symBinAddr: 0x10009F414, symSize: 0x14 }
  - { offset: 0xEC00B, size: 0x8, addend: 0x0, symName: __ZN4Pika6ScriptINS_9StdConfigEE12UnaryFunctorINSt3__125pointer_to_unary_functionIRNS2_5FrameEmEES7_mE8pikaCallES7_, symObjAddr: 0x4E9B0, symBinAddr: 0x10009F8D0, symSize: 0x78 }
  - { offset: 0xEC0C7, size: 0x8, addend: 0x0, symName: __ZN4Pika6ScriptINS_9StdConfigEE12UnaryFunctorINSt3__125pointer_to_unary_functionIRNS2_5FrameEmEES7_mED1Ev, symObjAddr: 0x4EA28, symBinAddr: 0x10009F948, symSize: 0x14 }
  - { offset: 0xEC0F3, size: 0x8, addend: 0x0, symName: __ZN4Pika6ScriptINS_9StdConfigEE12UnaryFunctorINSt3__125pointer_to_unary_functionIRNS2_5FrameEmEES7_mED0Ev, symObjAddr: 0x4EA3C, symBinAddr: 0x10009F95C, symSize: 0x14 }
  - { offset: 0xEC135, size: 0x8, addend: 0x0, symName: __ZN4Pika6ScriptINS_9StdConfigEE12UnaryFunctorINSt3__125pointer_to_unary_functionIRKNS2_5FrameENS4_12basic_stringIcNS4_11char_traitsIcEENS4_9allocatorIcEEEEEES8_SE_E8pikaCallERS6_, symObjAddr: 0x4EA50, symBinAddr: 0x10009F970, symSize: 0x30 }
  - { offset: 0xEC195, size: 0x8, addend: 0x0, symName: __ZN4Pika6ScriptINS_9StdConfigEE12UnaryFunctorINSt3__125pointer_to_unary_functionIRKNS2_5FrameENS4_12basic_stringIcNS4_11char_traitsIcEENS4_9allocatorIcEEEEEES8_SE_E4callIS7_SE_EENS_8STLValueISE_EERT_RKNS_4DumbIT0_EE, symObjAddr: 0x4EAA8, symBinAddr: 0x10009F9C8, symSize: 0x28C }
  - { offset: 0xEC449, size: 0x8, addend: 0x0, symName: __ZN4Pika6ScriptINS_9StdConfigEE12UnaryFunctorINSt3__125pointer_to_unary_functionIRKNS2_5FrameENS4_12basic_stringIcNS4_11char_traitsIcEENS4_9allocatorIcEEEEEES8_SE_ED1Ev, symObjAddr: 0x4EA80, symBinAddr: 0x10009F9A0, symSize: 0x14 }
  - { offset: 0xEC475, size: 0x8, addend: 0x0, symName: __ZN4Pika6ScriptINS_9StdConfigEE12UnaryFunctorINSt3__125pointer_to_unary_functionIRKNS2_5FrameENS4_12basic_stringIcNS4_11char_traitsIcEENS4_9allocatorIcEEEEEES8_SE_ED0Ev, symObjAddr: 0x4EA94, symBinAddr: 0x10009F9B4, symSize: 0x14 }
  - { offset: 0xEC538, size: 0x8, addend: 0x0, symName: __ZN4Pika6ScriptINS_9StdConfigEE12UnaryFunctorINSt3__125pointer_to_unary_functionIRKNS4_12basic_stringIcNS4_11char_traitsIcEENS4_9allocatorIcEEEEvEESD_vE8pikaCallERNS2_5FrameE, symObjAddr: 0x4ED34, symBinAddr: 0x10009FC54, symSize: 0x268 }
  - { offset: 0xEC814, size: 0x8, addend: 0x0, symName: __ZN4Pika6ScriptINS_9StdConfigEE12UnaryFunctorINSt3__125pointer_to_unary_functionIRKNS4_12basic_stringIcNS4_11char_traitsIcEENS4_9allocatorIcEEEEvEESD_vE3argINS_4DumbISD_EEEEKNS_8STLValueISB_EERNS2_5FrameERKT_, symObjAddr: 0x4EFC4, symBinAddr: 0x10009FEE4, symSize: 0x238 }
  - { offset: 0xECA73, size: 0x8, addend: 0x0, symName: __ZN4Pika6ScriptINS_9StdConfigEE12UnaryFunctorINSt3__125pointer_to_unary_functionIRKNS4_12basic_stringIcNS4_11char_traitsIcEENS4_9allocatorIcEEEEvEESD_vED1Ev, symObjAddr: 0x4EF9C, symBinAddr: 0x10009FEBC, symSize: 0x14 }
  - { offset: 0xECA9F, size: 0x8, addend: 0x0, symName: __ZN4Pika6ScriptINS_9StdConfigEE12UnaryFunctorINSt3__125pointer_to_unary_functionIRKNS4_12basic_stringIcNS4_11char_traitsIcEENS4_9allocatorIcEEEEvEESD_vED0Ev, symObjAddr: 0x4EFB0, symBinAddr: 0x10009FED0, symSize: 0x14 }
  - { offset: 0xECB4B, size: 0x8, addend: 0x0, symName: __ZN4Pika6ScriptINS_9StdConfigEE13BinaryFunctorINSt3__126pointer_to_binary_functionIRKNS4_12basic_stringIcNS4_11char_traitsIcEENS4_9allocatorIcEEEESD_vEESD_SD_vE8pikaCallERNS2_5FrameE, symObjAddr: 0x4F1FC, symBinAddr: 0x1000A011C, symSize: 0x4F4 }
  - { offset: 0xED427, size: 0x8, addend: 0x0, symName: __ZN4Pika6ScriptINS_9StdConfigEE13BinaryFunctorINSt3__126pointer_to_binary_functionIRKNS4_12basic_stringIcNS4_11char_traitsIcEENS4_9allocatorIcEEEESD_vEESD_SD_vED1Ev, symObjAddr: 0x4F6F0, symBinAddr: 0x1000A0610, symSize: 0x14 }
  - { offset: 0xED453, size: 0x8, addend: 0x0, symName: __ZN4Pika6ScriptINS_9StdConfigEE13BinaryFunctorINSt3__126pointer_to_binary_functionIRKNS4_12basic_stringIcNS4_11char_traitsIcEENS4_9allocatorIcEEEESD_vEESD_SD_vED0Ev, symObjAddr: 0x4F704, symBinAddr: 0x1000A0624, symSize: 0x14 }
  - { offset: 0xED504, size: 0x8, addend: 0x0, symName: __ZN4Pika6ScriptINS_9StdConfigEE12UnaryFunctorINSt3__125pointer_to_unary_functionIRKNS4_12basic_stringIcNS4_11char_traitsIcEENS4_9allocatorIcEEEEiEESD_iE8pikaCallERNS2_5FrameE, symObjAddr: 0x4F718, symBinAddr: 0x1000A0638, symSize: 0x274 }
  - { offset: 0xED7C3, size: 0x8, addend: 0x0, symName: __ZN4Pika6ScriptINS_9StdConfigEE12UnaryFunctorINSt3__125pointer_to_unary_functionIRKNS4_12basic_stringIcNS4_11char_traitsIcEENS4_9allocatorIcEEEEiEESD_iE3argINS_4DumbISD_EEEEKNS_8STLValueISB_EERNS2_5FrameERKT_, symObjAddr: 0x4F9B4, symBinAddr: 0x1000A08D4, symSize: 0x238 }
  - { offset: 0xEDA22, size: 0x8, addend: 0x0, symName: __ZN4Pika6ScriptINS_9StdConfigEE12UnaryFunctorINSt3__125pointer_to_unary_functionIRKNS4_12basic_stringIcNS4_11char_traitsIcEENS4_9allocatorIcEEEEiEESD_iED1Ev, symObjAddr: 0x4F98C, symBinAddr: 0x1000A08AC, symSize: 0x14 }
  - { offset: 0xEDA4E, size: 0x8, addend: 0x0, symName: __ZN4Pika6ScriptINS_9StdConfigEE12UnaryFunctorINSt3__125pointer_to_unary_functionIRKNS4_12basic_stringIcNS4_11char_traitsIcEENS4_9allocatorIcEEEEiEESD_iED0Ev, symObjAddr: 0x4F9A0, symBinAddr: 0x1000A08C0, symSize: 0x14 }
  - { offset: 0xEDAEB, size: 0x8, addend: 0x0, symName: __ZN4Pika6ScriptINS_9StdConfigEE12UnaryFunctorINSt3__125pointer_to_unary_functionIRKNS2_5FrameEvEES8_vE8pikaCallERS6_, symObjAddr: 0x4FBEC, symBinAddr: 0x1000A0B0C, symSize: 0x80 }
  - { offset: 0xEDBB7, size: 0x8, addend: 0x0, symName: __ZN4Pika6ScriptINS_9StdConfigEE12UnaryFunctorINSt3__125pointer_to_unary_functionIRKNS2_5FrameEvEES8_vED1Ev, symObjAddr: 0x4FC6C, symBinAddr: 0x1000A0B8C, symSize: 0x14 }
  - { offset: 0xEDBE3, size: 0x8, addend: 0x0, symName: __ZN4Pika6ScriptINS_9StdConfigEE12UnaryFunctorINSt3__125pointer_to_unary_functionIRKNS2_5FrameEvEES8_vED0Ev, symObjAddr: 0x4FC80, symBinAddr: 0x1000A0BA0, symSize: 0x14 }
  - { offset: 0xEF967, size: 0x8, addend: 0x0, symName: __ZN8QStrings8unitTestEv, symObjAddr: 0x0, symBinAddr: 0x1000A0C78, symSize: 0x24B0 }
  - { offset: 0xEF97C, size: 0x8, addend: 0x0, symName: _.str, symObjAddr: 0x3F40, symBinAddr: 0x1000FED20, symSize: 0x0 }
  - { offset: 0xEF9AC, size: 0x8, addend: 0x0, symName: _.str.1, symObjAddr: 0x3F60, symBinAddr: 0x1000FED40, symSize: 0x0 }
  - { offset: 0xEF9BD, size: 0x8, addend: 0x0, symName: _.str.2, symObjAddr: 0x3F80, symBinAddr: 0x1000FED60, symSize: 0x0 }
  - { offset: 0xEF9DA, size: 0x8, addend: 0x0, symName: _.str.3, symObjAddr: 0x3FA0, symBinAddr: 0x1000FED80, symSize: 0x0 }
  - { offset: 0xEF9F7, size: 0x8, addend: 0x0, symName: _.str.4, symObjAddr: 0x3FC0, symBinAddr: 0x1000FEDA0, symSize: 0x0 }
  - { offset: 0xEFA14, size: 0x8, addend: 0x0, symName: ___func__._ZN8QStrings8unitTestEv, symObjAddr: 0x4020, symBinAddr: 0x1000FEE00, symSize: 0x0 }
  - { offset: 0xEFA31, size: 0x8, addend: 0x0, symName: _.str.5, symObjAddr: 0x4040, symBinAddr: 0x1000FEE20, symSize: 0x0 }
  - { offset: 0xEFA4E, size: 0x8, addend: 0x0, symName: _.str.6, symObjAddr: 0x4060, symBinAddr: 0x1000FEE40, symSize: 0x0 }
  - { offset: 0xEFA6B, size: 0x8, addend: 0x0, symName: _.str.7, symObjAddr: 0x40C0, symBinAddr: 0x1000FEEA0, symSize: 0x0 }
  - { offset: 0xEFA88, size: 0x8, addend: 0x0, symName: _.str.8, symObjAddr: 0x4120, symBinAddr: 0x1000FEF00, symSize: 0x0 }
  - { offset: 0xEFA99, size: 0x8, addend: 0x0, symName: _.str.9, symObjAddr: 0x4180, symBinAddr: 0x1000FEF60, symSize: 0x0 }
  - { offset: 0xEFAAA, size: 0x8, addend: 0x0, symName: _.str.10, symObjAddr: 0x41E0, symBinAddr: 0x1000FEFC0, symSize: 0x0 }
  - { offset: 0xEFAC7, size: 0x8, addend: 0x0, symName: _.str.11, symObjAddr: 0x4240, symBinAddr: 0x1000FF020, symSize: 0x0 }
  - { offset: 0xEFAD8, size: 0x8, addend: 0x0, symName: _.str.12, symObjAddr: 0x42A0, symBinAddr: 0x1000FF080, symSize: 0x0 }
  - { offset: 0xEFAE9, size: 0x8, addend: 0x0, symName: _.str.13, symObjAddr: 0x4300, symBinAddr: 0x1000FF0E0, symSize: 0x0 }
  - { offset: 0xEFAFA, size: 0x8, addend: 0x0, symName: _.str.14, symObjAddr: 0x4360, symBinAddr: 0x1000FF140, symSize: 0x0 }
  - { offset: 0xEFB0B, size: 0x8, addend: 0x0, symName: _.str.15, symObjAddr: 0x43C0, symBinAddr: 0x1000FF1A0, symSize: 0x0 }
  - { offset: 0xEFB1C, size: 0x8, addend: 0x0, symName: _.str.16, symObjAddr: 0x4420, symBinAddr: 0x1000FF200, symSize: 0x0 }
  - { offset: 0xEFB2D, size: 0x8, addend: 0x0, symName: _.str.17, symObjAddr: 0x4480, symBinAddr: 0x1000FF260, symSize: 0x0 }
  - { offset: 0xEFB4A, size: 0x8, addend: 0x0, symName: _.str.18, symObjAddr: 0x44E0, symBinAddr: 0x1000FF2C0, symSize: 0x0 }
  - { offset: 0xEFB67, size: 0x8, addend: 0x0, symName: _.str.19, symObjAddr: 0x4540, symBinAddr: 0x1000FF320, symSize: 0x0 }
  - { offset: 0xEFB78, size: 0x8, addend: 0x0, symName: _.str.20, symObjAddr: 0x45A0, symBinAddr: 0x1000FF380, symSize: 0x0 }
  - { offset: 0xEFB89, size: 0x8, addend: 0x0, symName: _.str.21, symObjAddr: 0x4C20, symBinAddr: 0x1000E0580, symSize: 0x0 }
  - { offset: 0xEFBA6, size: 0x8, addend: 0x0, symName: _.str.22, symObjAddr: 0x4600, symBinAddr: 0x1000FF3E0, symSize: 0x0 }
  - { offset: 0xEFBCF, size: 0x8, addend: 0x0, symName: _.str.26, symObjAddr: 0x4620, symBinAddr: 0x1000FF400, symSize: 0x0 }
  - { offset: 0xEFBE0, size: 0x8, addend: 0x0, symName: _.str.27, symObjAddr: 0x4680, symBinAddr: 0x1000FF460, symSize: 0x0 }
  - { offset: 0xEFBFD, size: 0x8, addend: 0x0, symName: _.str.28, symObjAddr: 0x46A0, symBinAddr: 0x1000FF480, symSize: 0x0 }
  - { offset: 0xEFC1A, size: 0x8, addend: 0x0, symName: _.str.29, symObjAddr: 0x4700, symBinAddr: 0x1000FF4E0, symSize: 0x0 }
  - { offset: 0xEFC37, size: 0x8, addend: 0x0, symName: _.str.30, symObjAddr: 0x4720, symBinAddr: 0x1000FF500, symSize: 0x0 }
  - { offset: 0xEFC48, size: 0x8, addend: 0x0, symName: _.str.31, symObjAddr: 0x4780, symBinAddr: 0x1000FF560, symSize: 0x0 }
  - { offset: 0xEFC59, size: 0x8, addend: 0x0, symName: _.str.32, symObjAddr: 0x47A0, symBinAddr: 0x1000FF580, symSize: 0x0 }
  - { offset: 0xEFC76, size: 0x8, addend: 0x0, symName: _.str.33, symObjAddr: 0x4800, symBinAddr: 0x1000FF5E0, symSize: 0x0 }
  - { offset: 0xEFC87, size: 0x8, addend: 0x0, symName: _.str.34, symObjAddr: 0x4860, symBinAddr: 0x1000FF640, symSize: 0x0 }
  - { offset: 0xF0788, size: 0x8, addend: 0x0, symName: __ZN8QStrings8unitTestEv, symObjAddr: 0x0, symBinAddr: 0x1000A0C78, symSize: 0x24B0 }
  - { offset: 0xF5ABB, size: 0x8, addend: 0x0, symName: ___func__._ZN8QStrings7QStringIcLm52EE7releaseEv, symObjAddr: 0x4880, symBinAddr: 0x1000FF660, symSize: 0x0 }
  - { offset: 0xF5ACC, size: 0x8, addend: 0x0, symName: _.str.35, symObjAddr: 0x48A0, symBinAddr: 0x1000FF680, symSize: 0x0 }
  - { offset: 0xF5ADD, size: 0x8, addend: 0x0, symName: _.str.36, symObjAddr: 0x48C0, symBinAddr: 0x1000FF6A0, symSize: 0x0 }
  - { offset: 0xF5AFC, size: 0x8, addend: 0x0, symName: ___func__._ZN8QStrings7QStringIcLm52EE6appendEPKcm, symObjAddr: 0x48E0, symBinAddr: 0x1000FF6C0, symSize: 0x0 }
  - { offset: 0xF5B0F, size: 0x8, addend: 0x0, symName: _.str.37, symObjAddr: 0x4900, symBinAddr: 0x1000FF6E0, symSize: 0x0 }
  - { offset: 0xF5B22, size: 0x8, addend: 0x0, symName: _.str.38, symObjAddr: 0x4920, symBinAddr: 0x1000FF700, symSize: 0x0 }
  - { offset: 0xF5B35, size: 0x8, addend: 0x0, symName: ___func__._ZN8QStrings7QStringIcLm52EEC2ERKS1_mm, symObjAddr: 0x4940, symBinAddr: 0x1000FF720, symSize: 0x0 }
  - { offset: 0xF5B48, size: 0x8, addend: 0x0, symName: _.str.39, symObjAddr: 0x4960, symBinAddr: 0x1000FF740, symSize: 0x0 }
  - { offset: 0xF5B67, size: 0x8, addend: 0x0, symName: ___func__._ZNK8QStrings7QStringIcLm52EE6concatEPKcm, symObjAddr: 0x49E0, symBinAddr: 0x1000FF7C0, symSize: 0x0 }
  - { offset: 0xF5B7A, size: 0x8, addend: 0x0, symName: _.str.40, symObjAddr: 0x4A00, symBinAddr: 0x1000FF7E0, symSize: 0x0 }
  - { offset: 0xF5B97, size: 0x8, addend: 0x0, symName: ___func__._ZNK8QStrings7QStringIcLm52EE9_iteratorIKcKS1_EdeEv, symObjAddr: 0x4A40, symBinAddr: 0x1000FF820, symSize: 0x0 }
  - { offset: 0xF5BB4, size: 0x8, addend: 0x0, symName: _.str.41, symObjAddr: 0x4A60, symBinAddr: 0x1000FF840, symSize: 0x0 }
  - { offset: 0xF5BC7, size: 0x8, addend: 0x0, symName: _.str.42, symObjAddr: 0x4AC0, symBinAddr: 0x1000FF8A0, symSize: 0x0 }
  - { offset: 0xF5BD8, size: 0x8, addend: 0x0, symName: ___func__._ZN8QStrings7QStringIcLm52EE9newBufferEmPKcm, symObjAddr: 0x4AE0, symBinAddr: 0x1000FF8C0, symSize: 0x0 }
  - { offset: 0xF5BE9, size: 0x8, addend: 0x0, symName: _.str.43, symObjAddr: 0x4B00, symBinAddr: 0x1000FF8E0, symSize: 0x0 }
  - { offset: 0xF5C08, size: 0x8, addend: 0x0, symName: _.str.46, symObjAddr: 0x4B40, symBinAddr: 0x1000FF920, symSize: 0x0 }
  - { offset: 0xF5C27, size: 0x8, addend: 0x0, symName: _.str.47, symObjAddr: 0x4BA0, symBinAddr: 0x1000FF980, symSize: 0x0 }
  - { offset: 0xF5C44, size: 0x8, addend: 0x0, symName: _.str.48, symObjAddr: 0x4BE0, symBinAddr: 0x1000FF9C0, symSize: 0x0 }
  - { offset: 0xF5C55, size: 0x8, addend: 0x0, symName: ___func__._ZNK8QStrings7QStringIcLm52EE9_iteratorIcS1_EleIcS1_EEbRKNS2_IT_T0_EE, symObjAddr: 0x4C00, symBinAddr: 0x1000FF9E0, symSize: 0x0 }
  - { offset: 0xF8943, size: 0x8, addend: 0x0, symName: __ZN6fuzzer18MutationDispatcher9CrossOverEPKhmS2_mPhm, symObjAddr: 0x0, symBinAddr: 0x1000A31EC, symSize: 0x1A4 }
  - { offset: 0xFF9F2, size: 0x8, addend: 0x0, symName: __ZN6fuzzer18MutationDispatcher9CrossOverEPKhmS2_mPhm, symObjAddr: 0x0, symBinAddr: 0x1000A31EC, symSize: 0x1A4 }
  - { offset: 0x101D79, size: 0x8, addend: 0x0, symName: __ZN6fuzzer13BlockCoverage14AppendCoverageERKNSt3__112basic_stringIcNS1_11char_traitsIcEENS1_9allocatorIcEEEE, symObjAddr: 0x0, symBinAddr: 0x1000A3390, symSize: 0x1E0 }
  - { offset: 0x101D9E, size: 0x8, addend: 0x0, symName: __ZN6fuzzer15CollectDataFlowERKNSt3__112basic_stringIcNS0_11char_traitsIcEENS0_9allocatorIcEEEES8_RKNS0_6vectorINS_9SizedFileENS4_ISA_EEEE, symObjAddr: 0x23E8, symBinAddr: 0x1000A5640, symSize: 0x548 }
  - { offset: 0x101DC9, size: 0x8, addend: 0x0, symName: __ZZN6fuzzer15CollectDataFlowERKNSt3__112basic_stringIcNS0_11char_traitsIcEENS0_9allocatorIcEEEES8_RKNS0_6vectorINS_9SizedFileENS4_ISA_EEEEE8DFSanEnv, symObjAddr: 0x631E, symBinAddr: 0x10011CE88, symSize: 0x0 }
  - { offset: 0x12CB83, size: 0x8, addend: 0x0, symName: __ZN6fuzzer13BlockCoverage14AppendCoverageERKNSt3__112basic_stringIcNS1_11char_traitsIcEENS1_9allocatorIcEEEE, symObjAddr: 0x0, symBinAddr: 0x1000A3390, symSize: 0x1E0 }
  - { offset: 0x12CED7, size: 0x8, addend: 0x0, symName: __ZN6fuzzer13BlockCoverage14AppendCoverageERNSt3__113basic_istreamIcNS1_11char_traitsIcEEEE, symObjAddr: 0x1E0, symBinAddr: 0x1000A3570, symSize: 0x700 }
  - { offset: 0x12EE60, size: 0x8, addend: 0x0, symName: __ZNSt3__112__hash_tableImNS_4hashImEENS_8equal_toImEENS_9allocatorImEEE25__emplace_unique_key_argsImJRKmEEENS_4pairINS_15__hash_iteratorIPNS_11__hash_nodeImPvEEEEbEERKT_DpOT0_, symObjAddr: 0x35FC, symBinAddr: 0x1000A5B88, symSize: 0x334 }
  - { offset: 0x12F3A7, size: 0x8, addend: 0x0, symName: __ZNSt3__112__hash_tableINS_17__hash_value_typeImNS_6vectorIjNS_9allocatorIjEEEEEENS_22__unordered_map_hasherImS6_NS_4hashImEENS_8equal_toImEELb1EEENS_21__unordered_map_equalImS6_SB_S9_Lb1EEENS3_IS6_EEE25__emplace_unique_key_argsImJNS_4pairIKmS5_EEEEENSI_INS_15__hash_iteratorIPNS_11__hash_nodeIS6_PvEEEEbEERKT_DpOT0_, symObjAddr: 0x3B10, symBinAddr: 0x1000A6088, symSize: 0x34C }
  - { offset: 0x12F9D5, size: 0x8, addend: 0x0, symName: __ZNSt3__112__hash_tableINS_17__hash_value_typeImNS_6vectorIjNS_9allocatorIjEEEEEENS_22__unordered_map_hasherImS6_NS_4hashImEENS_8equal_toImEELb1EEENS_21__unordered_map_equalImS6_SB_S9_Lb1EEENS3_IS6_EEE25__emplace_unique_key_argsImJNS_4pairIKmS5_EEEEENSI_INS_15__hash_iteratorIPNS_11__hash_nodeIS6_PvEEEEbEERKT_DpOT0_, symObjAddr: 0x3B10, symBinAddr: 0x1000A6088, symSize: 0x34C }
  - { offset: 0x13004B, size: 0x8, addend: 0x0, symName: __ZNK6fuzzer13BlockCoverage15FunctionWeightsEm, symObjAddr: 0xA18, symBinAddr: 0x1000A3C70, symSize: 0x36C }
  - { offset: 0x1308B1, size: 0x8, addend: 0x0, symName: __ZN6fuzzer13DataFlowTrace12ReadCoverageERKNSt3__112basic_stringIcNS1_11char_traitsIcEENS1_9allocatorIcEEEE, symObjAddr: 0xD84, symBinAddr: 0x1000A3FDC, symSize: 0x274 }
  - { offset: 0x131150, size: 0x8, addend: 0x0, symName: __ZN6fuzzer13DataFlowTrace12ReadCoverageERKNSt3__112basic_stringIcNS1_11char_traitsIcEENS1_9allocatorIcEEEE, symObjAddr: 0xD84, symBinAddr: 0x1000A3FDC, symSize: 0x274 }
  - { offset: 0x131A82, size: 0x8, addend: 0x0, symName: __ZN6fuzzer13DataFlowTrace4InitERKNSt3__112basic_stringIcNS1_11char_traitsIcEENS1_9allocatorIcEEEEPS7_RNS1_6vectorINS_9SizedFileENS5_ISC_EEEERNS_6RandomE, symObjAddr: 0xFF8, symBinAddr: 0x1000A4250, symSize: 0x13F0 }
  - { offset: 0x132C10, size: 0x8, addend: 0x0, symName: __ZN6fuzzer13DataFlowTrace4InitERKNSt3__112basic_stringIcNS1_11char_traitsIcEENS1_9allocatorIcEEEEPS7_RNS1_6vectorINS_9SizedFileENS5_ISC_EEEERNS_6RandomE, symObjAddr: 0xFF8, symBinAddr: 0x1000A4250, symSize: 0x13F0 }
  - { offset: 0x136B56, size: 0x8, addend: 0x0, symName: __ZN6fuzzer15CollectDataFlowERKNSt3__112basic_stringIcNS0_11char_traitsIcEENS0_9allocatorIcEEEES8_RKNS0_6vectorINS_9SizedFileENS4_ISA_EEEE, symObjAddr: 0x23E8, symBinAddr: 0x1000A5640, symSize: 0x548 }
  - { offset: 0x1371A9, size: 0x8, addend: 0x0, symName: __ZNSt3__112__hash_tableImNS_4hashImEENS_8equal_toImEENS_9allocatorImEEE25__emplace_unique_key_argsImJRKmEEENS_4pairINS_15__hash_iteratorIPNS_11__hash_nodeImPvEEEEbEERKT_DpOT0_, symObjAddr: 0x35FC, symBinAddr: 0x1000A5B88, symSize: 0x334 }
  - { offset: 0x1376DC, size: 0x8, addend: 0x0, symName: __ZNSt3__112__hash_tableINS_17__hash_value_typeINS_12basic_stringIcNS_11char_traitsIcEENS_9allocatorIcEEEENS_6vectorIhNS5_IhEEEEEENS_22__unordered_map_hasherIS7_SB_NS_4hashIS7_EENS_8equal_toIS7_EELb1EEENS_21__unordered_map_equalIS7_SB_SG_SE_Lb1EEENS5_ISB_EEE25__emplace_unique_key_argsIS7_JRKNS_21piecewise_construct_tENS_5tupleIJRKS7_EEENSQ_IJEEEEEENS_4pairINS_15__hash_iteratorIPNS_11__hash_nodeISB_PvEEEEbEERKT_DpOT0_, symObjAddr: 0x5A28, symBinAddr: 0x1000A65A0, symSize: 0x3FC }
  - { offset: 0x13A018, size: 0x8, addend: 0x0, symName: __ZNSt3__112__hash_tableImNS_4hashImEENS_8equal_toImEENS_9allocatorImEEE11__do_rehashILb1EEEvm, symObjAddr: 0x3930, symBinAddr: 0x1000A5EBC, symSize: 0x1CC }
  - { offset: 0x13A769, size: 0x8, addend: 0x0, symName: __ZNSt3__112__hash_tableINS_17__hash_value_typeImNS_6vectorIjNS_9allocatorIjEEEEEENS_22__unordered_map_hasherImS6_NS_4hashImEENS_8equal_toImEELb1EEENS_21__unordered_map_equalImS6_SB_S9_Lb1EEENS3_IS6_EEE11__do_rehashILb1EEEvm, symObjAddr: 0x3E5C, symBinAddr: 0x1000A63D4, symSize: 0x1CC }
  - { offset: 0x13C991, size: 0x8, addend: 0x0, symName: __ZNSt3__112__hash_tableINS_17__hash_value_typeINS_12basic_stringIcNS_11char_traitsIcEENS_9allocatorIcEEEENS_6vectorIhNS5_IhEEEEEENS_22__unordered_map_hasherIS7_SB_NS_4hashIS7_EENS_8equal_toIS7_EELb1EEENS_21__unordered_map_equalIS7_SB_SG_SE_Lb1EEENS5_ISB_EEE25__emplace_unique_key_argsIS7_JRKNS_21piecewise_construct_tENS_5tupleIJRKS7_EEENSQ_IJEEEEEENS_4pairINS_15__hash_iteratorIPNS_11__hash_nodeISB_PvEEEEbEERKT_DpOT0_, symObjAddr: 0x5A28, symBinAddr: 0x1000A65A0, symSize: 0x3FC }
  - { offset: 0x13D8A2, size: 0x8, addend: 0x0, symName: __ZNSt3__112__hash_tableINS_17__hash_value_typeINS_12basic_stringIcNS_11char_traitsIcEENS_9allocatorIcEEEENS_6vectorIhNS5_IhEEEEEENS_22__unordered_map_hasherIS7_SB_NS_4hashIS7_EENS_8equal_toIS7_EELb1EEENS_21__unordered_map_equalIS7_SB_SG_SE_Lb1EEENS5_ISB_EEE11__do_rehashILb1EEEvm, symObjAddr: 0x5E24, symBinAddr: 0x1000A699C, symSize: 0x1CC }
  - { offset: 0x13FD23, size: 0x8, addend: 0x0, symName: __ZN6fuzzerL2MuE, symObjAddr: 0x9920, symBinAddr: 0x10011CEB0, symSize: 0x0 }
  - { offset: 0x13FD3E, size: 0x8, addend: 0x0, symName: __ZN6fuzzer2EFE, symObjAddr: 0x1517B8, symBinAddr: 0x1001499B0, symSize: 0x0 }
  - { offset: 0x13FE63, size: 0x8, addend: 0x0, symName: __MergedGlobals, symObjAddr: 0x1517C0, symBinAddr: 0x10017D408, symSize: 0x0 }
  - { offset: 0x1402AB, size: 0x8, addend: 0x0, symName: __MergedGlobals, symObjAddr: 0x1517C0, symBinAddr: 0x10017D408, symSize: 0x0 }
  - { offset: 0x1402C7, size: 0x8, addend: 0x0, symName: __MergedGlobals, symObjAddr: 0x1517C0, symBinAddr: 0x10017D408, symSize: 0x0 }
  - { offset: 0x1402F0, size: 0x8, addend: 0x0, symName: __ZN6fuzzerL16FlagDescriptionsE, symObjAddr: 0xC980, symBinAddr: 0x1001190E8, symSize: 0x0 }
  - { offset: 0x1420D1, size: 0x8, addend: 0x0, symName: __ZN6fuzzer17CloneArgsWithoutXERKNSt3__16vectorINS0_12basic_stringIcNS0_11char_traitsIcEENS0_9allocatorIcEEEENS5_IS7_EEEEPKcSD_, symObjAddr: 0x4, symBinAddr: 0x1000A6B6C, symSize: 0x22C }
  - { offset: 0x142970, size: 0x8, addend: 0x0, symName: __ZN6fuzzer10RunOneTestEPNS_6FuzzerEPKcm, symObjAddr: 0x230, symBinAddr: 0x1000A6D98, symSize: 0x15C }
  - { offset: 0x14297A, size: 0x8, addend: 0x0, symName: __ZN6fuzzer10RunOneTestEPNS_6FuzzerEPKcm, symObjAddr: 0x230, symBinAddr: 0x1000A6D98, symSize: 0x15C }
  - { offset: 0x142FCD, size: 0x8, addend: 0x0, symName: __ZNSt3__112basic_stringIcNS_11char_traitsIcEENS_9allocatorIcEEEC1B8nn200100ILi0EEEPKc, symObjAddr: 0x38C, symBinAddr: 0x1000A6EF4, symSize: 0xA4 }
  - { offset: 0x142FF6, size: 0x8, addend: 0x0, symName: __ZN6fuzzer17CleanseCrashInputERKNSt3__16vectorINS0_12basic_stringIcNS0_11char_traitsIcEENS0_9allocatorIcEEEENS5_IS7_EEEERKNS_14FuzzingOptionsE, symObjAddr: 0x430, symBinAddr: 0x1000A6F98, symSize: 0x9D4 }
  - { offset: 0x14516A, size: 0x8, addend: 0x0, symName: __ZN6fuzzer7Command10removeFlagERKNSt3__112basic_stringIcNS1_11char_traitsIcEENS1_9allocatorIcEEEE, symObjAddr: 0xE04, symBinAddr: 0x1000A796C, symSize: 0x21C }
  - { offset: 0x1451EC, size: 0x8, addend: 0x0, symName: __ZN6fuzzer18MinimizeCrashInputERKNSt3__16vectorINS0_12basic_stringIcNS0_11char_traitsIcEENS0_9allocatorIcEEEENS5_IS7_EEEERKNS_14FuzzingOptionsE, symObjAddr: 0x11D0, symBinAddr: 0x1000A7D38, symSize: 0xEE0 }
  - { offset: 0x149BC8, size: 0x8, addend: 0x0, symName: __ZN6fuzzer7Command7addFlagERKNSt3__112basic_stringIcNS1_11char_traitsIcEENS1_9allocatorIcEEEES9_, symObjAddr: 0x20B0, symBinAddr: 0x1000A8C18, symSize: 0x1A8 }
  - { offset: 0x149BED, size: 0x8, addend: 0x0, symName: __ZN6fuzzerL26GetDedupTokenFromCmdOutputERKNSt3__112basic_stringIcNS0_11char_traitsIcEENS0_9allocatorIcEEEE, symObjAddr: 0x264C, symBinAddr: 0x1000A91B4, symSize: 0x1F8 }
  - { offset: 0x14A22F, size: 0x8, addend: 0x0, symName: __ZN6fuzzer30MinimizeCrashInputInternalStepEPNS_6FuzzerEPNS_11InputCorpusE, symObjAddr: 0x2844, symBinAddr: 0x1000A93AC, symSize: 0xFC }
  - { offset: 0x14A24E, size: 0x8, addend: 0x0, symName: __ZN6fuzzer30MinimizeCrashInputInternalStepEPNS_6FuzzerEPNS_11InputCorpusE, symObjAddr: 0x2844, symBinAddr: 0x1000A93AC, symSize: 0xFC }
  - { offset: 0x14A45A, size: 0x8, addend: 0x0, symName: __ZN6fuzzer5MergeEPNS_6FuzzerERNS_14FuzzingOptionsERKNSt3__16vectorINS4_12basic_stringIcNS4_11char_traitsIcEENS4_9allocatorIcEEEENS9_ISB_EEEESF_PKc, symObjAddr: 0x2940, symBinAddr: 0x1000A94A8, symSize: 0x30C }
  - { offset: 0x14A46B, size: 0x8, addend: 0x0, symName: __ZN6fuzzer5MergeEPNS_6FuzzerERNS_14FuzzingOptionsERKNSt3__16vectorINS4_12basic_stringIcNS4_11char_traitsIcEENS4_9allocatorIcEEEENS9_ISB_EEEESF_PKc, symObjAddr: 0x2940, symBinAddr: 0x1000A94A8, symSize: 0x30C }
  - { offset: 0x14B2EC, size: 0x8, addend: 0x0, symName: __ZN6fuzzer17AnalyzeDictionaryEPNS_6FuzzerERKNSt3__16vectorINS3_IhNS2_9allocatorIhEEEENS4_IS6_EEEERS8_, symObjAddr: 0x2C4C, symBinAddr: 0x1000A97B4, symSize: 0x69C }
  - { offset: 0x14B355, size: 0x8, addend: 0x0, symName: __ZN6fuzzer17AnalyzeDictionaryEPNS_6FuzzerERKNSt3__16vectorINS3_IhNS2_9allocatorIhEEEENS4_IS6_EEEERS8_, symObjAddr: 0x2C4C, symBinAddr: 0x1000A97B4, symSize: 0x69C }
  - { offset: 0x14C9B1, size: 0x8, addend: 0x0, symName: '__ZNK6fuzzer7TracePC15CollectFeaturesIZNS_17AnalyzeDictionaryEPNS_6FuzzerERKNSt3__16vectorINS5_IhNS4_9allocatorIhEEEENS6_IS8_EEEERSA_E3$_0EEmT_', symObjAddr: 0x32E8, symBinAddr: 0x1000A9E50, symSize: 0x290 }
  - { offset: 0x14D187, size: 0x8, addend: 0x0, symName: '__ZN6fuzzer18ForEachNonZeroByteIZNKS_7TracePC15CollectFeaturesIZNS_17AnalyzeDictionaryEPNS_6FuzzerERKNSt3__16vectorINS6_IhNS5_9allocatorIhEEEENS7_IS9_EEEERSB_E3$_0EEmT_EUlmmhE_EEmPKhSJ_mSG_', symObjAddr: 0x8EFC, symBinAddr: 0x1000AF954, symSize: 0x3D8 }
  - { offset: 0x14D69A, size: 0x8, addend: 0x0, symName: __ZNSt3__16vectorImNS_9allocatorImEEE9push_backB8nn200100ERKm, symObjAddr: 0x92D4, symBinAddr: 0x1000AFD2C, symSize: 0xF8 }
  - { offset: 0x14D6CC, size: 0x8, addend: 0x0, symName: '__ZN6fuzzer18ForEachNonZeroByteIZNKS_7TracePC15CollectFeaturesIZNS_17AnalyzeDictionaryEPNS_6FuzzerERKNSt3__16vectorINS6_IhNS5_9allocatorIhEEEENS7_IS9_EEEERSB_E3$_1EEmT_EUlmmhE_EEmPKhSJ_mSG_', symObjAddr: 0x93E0, symBinAddr: 0x1000AFE24, symSize: 0x3D8 }
  - { offset: 0x14DBDF, size: 0x8, addend: 0x0, symName: __ZNSt3__16vectorINS_12basic_stringIcNS_11char_traitsIcEENS_9allocatorIcEEEENS4_IS6_EEE16__init_with_sizeB8nn200100IPPcSB_EEvT_T0_m, symObjAddr: 0x97B8, symBinAddr: 0x1000B01FC, symSize: 0x114 }
  - { offset: 0x14DBF2, size: 0x8, addend: 0x0, symName: __ZN6fuzzer14ParseSeedInutsEPKc, symObjAddr: 0x3808, symBinAddr: 0x1000AA370, symSize: 0x49C }
  - { offset: 0x14F137, size: 0x8, addend: 0x0, symName: __ZNSt3__16vectorINS_12basic_stringIcNS_11char_traitsIcEENS_9allocatorIcEEEENS4_IS6_EEE9push_backB8nn200100EOS6_, symObjAddr: 0x3CA4, symBinAddr: 0x1000AA80C, symSize: 0x140 }
  - { offset: 0x14F3E7, size: 0x8, addend: 0x0, symName: __ZN6fuzzer12FuzzerDriverEPiPPPcPFiPKhmE, symObjAddr: 0x3E64, symBinAddr: 0x1000AA9CC, symSize: 0x1F64 }
  - { offset: 0x1557D3, size: 0x8, addend: 0x0, symName: __ZN6fuzzerL23ValidateDirectoryExistsERKNSt3__112basic_stringIcNS0_11char_traitsIcEENS0_9allocatorIcEEEEb, symObjAddr: 0x5DC8, symBinAddr: 0x1000AC930, symSize: 0xBC }
  - { offset: 0x155829, size: 0x8, addend: 0x0, symName: __ZN6fuzzerL23ValidateDirectoryExistsERKNSt3__112basic_stringIcNS0_11char_traitsIcEENS0_9allocatorIcEEEEb, symObjAddr: 0x5DC8, symBinAddr: 0x1000AC930, symSize: 0xBC }
  - { offset: 0x155A15, size: 0x8, addend: 0x0, symName: __ZN6fuzzerL11ReadCorporaERKNSt3__16vectorINS0_12basic_stringIcNS0_11char_traitsIcEENS0_9allocatorIcEEEENS5_IS7_EEEESB_, symObjAddr: 0x5E84, symBinAddr: 0x1000AC9EC, symSize: 0x188 }
  - { offset: 0x155AA0, size: 0x8, addend: 0x0, symName: __ZN6fuzzerL11ReadCorporaERKNSt3__16vectorINS0_12basic_stringIcNS0_11char_traitsIcEENS0_9allocatorIcEEEENS5_IS7_EEEESB_, symObjAddr: 0x5E84, symBinAddr: 0x1000AC9EC, symSize: 0x188 }
  - { offset: 0x156110, size: 0x8, addend: 0x0, symName: __ZN6fuzzerL11PulseThreadEv, symObjAddr: 0x6C2C, symBinAddr: 0x1000AD720, symSize: 0x40 }
  - { offset: 0x156211, size: 0x8, addend: 0x0, symName: __ZN6fuzzerL12WorkerThreadERKNS_7CommandEPNSt3__16atomicIjEEjPNS4_IbEE, symObjAddr: 0x6C6C, symBinAddr: 0x1000AD760, symSize: 0x2D0 }
  - { offset: 0x156F92, size: 0x8, addend: 0x0, symName: __ZN6fuzzerL9RssThreadEPNS_6FuzzerEm, symObjAddr: 0x757C, symBinAddr: 0x1000AE070, symSize: 0x34 }
  - { offset: 0x15C53A, size: 0x8, addend: 0x0, symName: __ZNSt3__124__put_character_sequenceB8nn200100IcNS_11char_traitsIcEEEERNS_13basic_ostreamIT_T0_EES7_PKS4_m, symObjAddr: 0x68D0, symBinAddr: 0x1000AD3D8, symSize: 0x124 }
  - { offset: 0x172A8B, size: 0x8, addend: 0x0, symName: __ZNSt3__111__introsortINS_17_ClassicAlgPolicyERNS_6__lessIvvEEPN6fuzzer9SizedFileELb0EEEvT1_S8_T0_NS_15iterator_traitsIS8_E15difference_typeEb, symObjAddr: 0x797C, symBinAddr: 0x1000AE3D4, symSize: 0x550 }
  - { offset: 0x173A00, size: 0x8, addend: 0x0, symName: __ZNSt3__111__sift_downB8nn200100INS_17_ClassicAlgPolicyERNS_6__lessIvvEEPN6fuzzer9SizedFileEEEvT1_OT0_NS_15iterator_traitsIS8_E15difference_typeES8_, symObjAddr: 0x8ADC, symBinAddr: 0x1000AF534, symSize: 0x16C }
  - { offset: 0x173EE4, size: 0x8, addend: 0x0, symName: __ZNSt3__131__partition_with_equals_on_leftB8nn200100INS_17_ClassicAlgPolicyEPN6fuzzer9SizedFileERNS_6__lessIvvEEEET0_S8_S8_T1_, symObjAddr: 0x84F0, symBinAddr: 0x1000AEF48, symSize: 0x1BC }
  - { offset: 0x17469D, size: 0x8, addend: 0x0, symName: __ZNSt3__132__partition_with_equals_on_rightB8nn200100INS_17_ClassicAlgPolicyEPN6fuzzer9SizedFileERNS_6__lessIvvEEEENS_4pairIT0_bEES9_S9_T1_, symObjAddr: 0x86AC, symBinAddr: 0x1000AF104, symSize: 0x1C8 }
  - { offset: 0x174E61, size: 0x8, addend: 0x0, symName: __ZNSt3__127__insertion_sort_incompleteB8nn200100INS_17_ClassicAlgPolicyERNS_6__lessIvvEEPN6fuzzer9SizedFileEEEbT1_S8_T0_, symObjAddr: 0x8874, symBinAddr: 0x1000AF2CC, symSize: 0x268 }
  - { offset: 0x17A0AD, size: 0x8, addend: 0x0, symName: __ZNSt3__19remove_ifB8nn200100INS_11__wrap_iterIPNS_12basic_stringIcNS_11char_traitsIcEENS_9allocatorIcEEEEEEZN6fuzzer7Command10removeFlagERKS7_EUlSD_E_EET_SF_SF_T0_, symObjAddr: 0x60D8, symBinAddr: 0x1000ACC10, symSize: 0xFC }
  - { offset: 0x17A3BB, size: 0x8, addend: 0x0, symName: __ZNSt3__16removeB8nn200100INS_11__wrap_iterIPNS_12basic_stringIcNS_11char_traitsIcEENS_9allocatorIcEEEEEES7_EET_SA_SA_RKT0_, symObjAddr: 0x6204, symBinAddr: 0x1000ACD0C, symSize: 0x150 }
  - { offset: 0x1806A8, size: 0x8, addend: 0x0, symName: __ZNSt3__16removeB8nn200100INS_11__wrap_iterIPNS_12basic_stringIcNS_11char_traitsIcEENS_9allocatorIcEEEEEES7_EET_SA_SA_RKT0_, symObjAddr: 0x6204, symBinAddr: 0x1000ACD0C, symSize: 0x150 }
  - { offset: 0x180984, size: 0x8, addend: 0x0, symName: __ZNSt3__116__pad_and_outputB8nn200100IcNS_11char_traitsIcEEEENS_19ostreambuf_iteratorIT_T0_EES6_PKS4_S8_S8_RNS_8ios_baseES4_, symObjAddr: 0x69F4, symBinAddr: 0x1000AD4FC, symSize: 0x224 }
  - { offset: 0x181233, size: 0x8, addend: 0x0, symName: __ZNSt3__114__thread_proxyB8nn200100INS_5tupleIJNS_10unique_ptrINS_15__thread_structENS_14default_deleteIS3_EEEEPFvvEEEEEEPvSA_, symObjAddr: 0x6F3C, symBinAddr: 0x1000ADA30, symSize: 0x60 }
  - { offset: 0x181782, size: 0x8, addend: 0x0, symName: __ZNSt3__114__thread_proxyB8nn200100INS_5tupleIJNS_10unique_ptrINS_15__thread_structENS_14default_deleteIS3_EEEEPFvRKN6fuzzer7CommandEPNS_6atomicIjEEjPNSB_IbEEENS_17reference_wrapperIS8_EESD_jSF_EEEEEPvSL_, symObjAddr: 0x7228, symBinAddr: 0x1000ADD1C, symSize: 0x6C }
  - { offset: 0x181D1D, size: 0x8, addend: 0x0, symName: __ZNSt3__114__thread_proxyB8nn200100INS_5tupleIJNS_10unique_ptrINS_15__thread_structENS_14default_deleteIS3_EEEEPFvPN6fuzzer6FuzzerEmES9_mEEEEEPvSD_, symObjAddr: 0x75B0, symBinAddr: 0x1000AE0A4, symSize: 0x64 }
  - { offset: 0x18239C, size: 0x8, addend: 0x0, symName: __ZNSt3__17__sort3B8nn200100INS_17_ClassicAlgPolicyERNS_6__lessIvvEEPN6fuzzer9SizedFileETnNS_9enable_ifIXnt21__use_branchless_sortIT0_T1_EEiE4typeELi0EEEbSA_SA_SA_S9_, symObjAddr: 0x7ECC, symBinAddr: 0x1000AE924, symSize: 0x294 }
  - { offset: 0x18309C, size: 0x8, addend: 0x0, symName: __ZNSt3__17__sort5B8nn200100INS_17_ClassicAlgPolicyERNS_6__lessIvvEEPN6fuzzer9SizedFileETnNS_9enable_ifIXnt21__use_branchless_sortIT0_T1_EEiE4typeELi0EEEvSA_SA_SA_SA_SA_S9_, symObjAddr: 0x82EC, symBinAddr: 0x1000AED44, symSize: 0x204 }
  - { offset: 0x183D6B, size: 0x8, addend: 0x0, symName: __ZNSt3__17__sort4B8nn200100INS_17_ClassicAlgPolicyERNS_6__lessIvvEEPN6fuzzer9SizedFileETnNS_9enable_ifIXnt21__use_branchless_sortIT0_T1_EEiE4typeELi0EEEvSA_SA_SA_SA_S9_, symObjAddr: 0x8160, symBinAddr: 0x1000AEBB8, symSize: 0x18C }
  - { offset: 0x184722, size: 0x8, addend: 0x0, symName: __ZNSt3__110__pop_heapB8nn200100INS_17_ClassicAlgPolicyENS_6__lessIvvEEPN6fuzzer9SizedFileEEEvT1_S7_RT0_NS_15iterator_traitsIS7_E15difference_typeE, symObjAddr: 0x8C48, symBinAddr: 0x1000AF6A0, symSize: 0x258 }
  - { offset: 0x1865DA, size: 0x8, addend: 0x0, symName: __ZNSt3__19remove_ifB8nn200100INS_11__wrap_iterIPNS_12basic_stringIcNS_11char_traitsIcEENS_9allocatorIcEEEEEEZN6fuzzer7Command10removeFlagERKS7_EUlSD_E_EET_SF_SF_T0_, symObjAddr: 0x60D8, symBinAddr: 0x1000ACC10, symSize: 0xFC }
  - { offset: 0x1887D9, size: 0x8, addend: 0x0, symName: ___libfuzzer_is_present, symObjAddr: 0x0, symBinAddr: 0x1000A6B68, symSize: 0x4 }
  - { offset: 0x188C04, size: 0x8, addend: 0x0, symName: __ZN6fuzzerL11PulseThreadEv, symObjAddr: 0x6C2C, symBinAddr: 0x1000AD720, symSize: 0x40 }
  - { offset: 0x188E81, size: 0x8, addend: 0x0, symName: __ZNSt3__112basic_stringIcNS_11char_traitsIcEENS_9allocatorIcEEEC1B8nn200100ILi0EEEPKc, symObjAddr: 0x38C, symBinAddr: 0x1000A6EF4, symSize: 0xA4 }
  - { offset: 0x1890EC, size: 0x8, addend: 0x0, symName: __ZN6fuzzer17CleanseCrashInputERKNSt3__16vectorINS0_12basic_stringIcNS0_11char_traitsIcEENS0_9allocatorIcEEEENS5_IS7_EEEERKNS_14FuzzingOptionsE, symObjAddr: 0x430, symBinAddr: 0x1000A6F98, symSize: 0x9D4 }
  - { offset: 0x189A67, size: 0x8, addend: 0x0, symName: __ZNSt3__16vectorINS_12basic_stringIcNS_11char_traitsIcEENS_9allocatorIcEEEENS4_IS6_EEE24__emplace_back_slow_pathIJRKS6_EEEPS6_DpOT_, symObjAddr: 0x7824, symBinAddr: 0x1000AE290, symSize: 0x130 }
  - { offset: 0x189A72, size: 0x8, addend: 0x0, symName: __ZN6fuzzer7Command10removeFlagERKNSt3__112basic_stringIcNS1_11char_traitsIcEENS1_9allocatorIcEEEE, symObjAddr: 0xE04, symBinAddr: 0x1000A796C, symSize: 0x21C }
  - { offset: 0x18A34B, size: 0x8, addend: 0x0, symName: __ZN6fuzzer7Command14removeArgumentERKNSt3__112basic_stringIcNS1_11char_traitsIcEENS1_9allocatorIcEEEE, symObjAddr: 0x1020, symBinAddr: 0x1000A7B88, symSize: 0x1B0 }
  - { offset: 0x18A385, size: 0x8, addend: 0x0, symName: __ZN6fuzzer7Command14removeArgumentERKNSt3__112basic_stringIcNS1_11char_traitsIcEENS1_9allocatorIcEEEE, symObjAddr: 0x1020, symBinAddr: 0x1000A7B88, symSize: 0x1B0 }
  - { offset: 0x18A98E, size: 0x8, addend: 0x0, symName: __ZN6fuzzer18MinimizeCrashInputERKNSt3__16vectorINS0_12basic_stringIcNS0_11char_traitsIcEENS0_9allocatorIcEEEENS5_IS7_EEEERKNS_14FuzzingOptionsE, symObjAddr: 0x11D0, symBinAddr: 0x1000A7D38, symSize: 0xEE0 }
  - { offset: 0x18A9B5, size: 0x8, addend: 0x0, symName: __ZNSt3__16vectorINS_12basic_stringIcNS_11char_traitsIcEENS_9allocatorIcEEEENS4_IS6_EEE6insertENS_11__wrap_iterIPKS6_EERSA_, symObjAddr: 0x6354, symBinAddr: 0x1000ACE5C, symSize: 0x254 }
  - { offset: 0x18B2A7, size: 0x8, addend: 0x0, symName: __ZNSt3__114__split_bufferINS_12basic_stringIcNS_11char_traitsIcEENS_9allocatorIcEEEERNS4_IS6_EEE12emplace_backIJRKS6_EEEvDpOT_, symObjAddr: 0x65A8, symBinAddr: 0x1000AD0B0, symSize: 0x218 }
  - { offset: 0x18B2F1, size: 0x8, addend: 0x0, symName: __ZNSt3__16vectorINS_12basic_stringIcNS_11char_traitsIcEENS_9allocatorIcEEEENS4_IS6_EEE20__throw_out_of_rangeB8nn200100Ev, symObjAddr: 0x7968, symBinAddr: 0x1000AE3C0, symSize: 0x14 }
  - { offset: 0x18B309, size: 0x8, addend: 0x0, symName: __ZNSt3__111__introsortINS_17_ClassicAlgPolicyERNS_6__lessIvvEEPN6fuzzer9SizedFileELb0EEEvT1_S8_T0_NS_15iterator_traitsIS8_E15difference_typeEb, symObjAddr: 0x797C, symBinAddr: 0x1000AE3D4, symSize: 0x550 }
  - { offset: 0x18B314, size: 0x8, addend: 0x0, symName: __ZNSt3__16vectorINS_12basic_stringIcNS_11char_traitsIcEENS_9allocatorIcEEEENS4_IS6_EEE20__throw_length_errorB8nn200100Ev, symObjAddr: 0x6094, symBinAddr: 0x1000ACBFC, symSize: 0x14 }
  - { offset: 0x18B597, size: 0x8, addend: 0x0, symName: __ZN6fuzzer7Command7addFlagERKNSt3__112basic_stringIcNS1_11char_traitsIcEENS1_9allocatorIcEEEES9_, symObjAddr: 0x20B0, symBinAddr: 0x1000A8C18, symSize: 0x1A8 }
  - { offset: 0x18BCB6, size: 0x8, addend: 0x0, symName: __ZNK6fuzzer7Command8toStringEv, symObjAddr: 0x2258, symBinAddr: 0x1000A8DC0, symSize: 0x3F4 }
  - { offset: 0x18BCC1, size: 0x8, addend: 0x0, symName: __ZNK6fuzzer7Command8toStringEv, symObjAddr: 0x2258, symBinAddr: 0x1000A8DC0, symSize: 0x3F4 }
  - { offset: 0x18C9AE, size: 0x8, addend: 0x0, symName: __ZN6fuzzerL26GetDedupTokenFromCmdOutputERKNSt3__112basic_stringIcNS0_11char_traitsIcEENS0_9allocatorIcEEEE, symObjAddr: 0x264C, symBinAddr: 0x1000A91B4, symSize: 0x1F8 }
  - { offset: 0x18D0B7, size: 0x8, addend: 0x0, symName: __ZNSt3__16__treeIjNS_4lessIjEENS_9allocatorIjEEE7destroyEPNS_11__tree_nodeIjPvEE, symObjAddr: 0x8EA0, symBinAddr: 0x1000AF8F8, symSize: 0x48 }
  - { offset: 0x18DD7C, size: 0x8, addend: 0x0, symName: '__ZNK6fuzzer7TracePC15CollectFeaturesIZNS_17AnalyzeDictionaryEPNS_6FuzzerERKNSt3__16vectorINS5_IhNS4_9allocatorIhEEEENS6_IS8_EEEERSA_E3$_0EEmT_', symObjAddr: 0x32E8, symBinAddr: 0x1000A9E50, symSize: 0x290 }
  - { offset: 0x18E3F1, size: 0x8, addend: 0x0, symName: '__ZNK6fuzzer7TracePC15CollectFeaturesIZNS_17AnalyzeDictionaryEPNS_6FuzzerERKNSt3__16vectorINS5_IhNS4_9allocatorIhEEEENS6_IS8_EEEERSA_E3$_1EEmT_', symObjAddr: 0x3578, symBinAddr: 0x1000AA0E0, symSize: 0x290 }
  - { offset: 0x18E446, size: 0x8, addend: 0x0, symName: '__ZNK6fuzzer7TracePC15CollectFeaturesIZNS_17AnalyzeDictionaryEPNS_6FuzzerERKNSt3__16vectorINS5_IhNS4_9allocatorIhEEEENS6_IS8_EEEERSA_E3$_1EEmT_', symObjAddr: 0x3578, symBinAddr: 0x1000AA0E0, symSize: 0x290 }
  - { offset: 0x18EABB, size: 0x8, addend: 0x0, symName: __ZN6fuzzer14ParseSeedInutsEPKc, symObjAddr: 0x3808, symBinAddr: 0x1000AA370, symSize: 0x49C }
  - { offset: 0x18EB1A, size: 0x8, addend: 0x0, symName: __ZNSt3__16vectorINS_12basic_stringIcNS_11char_traitsIcEENS_9allocatorIcEEEENS4_IS6_EEE20__throw_out_of_rangeB8nn200100Ev, symObjAddr: 0x7968, symBinAddr: 0x1000AE3C0, symSize: 0x14 }
  - { offset: 0x18EB25, size: 0x8, addend: 0x0, symName: __ZNSt3__16vectorIiNS_9allocatorIiEEE20__throw_length_errorB8nn200100Ev, symObjAddr: 0x8EE8, symBinAddr: 0x1000AF940, symSize: 0x14 }
  - { offset: 0x18EB3D, size: 0x8, addend: 0x0, symName: '__ZN6fuzzer18ForEachNonZeroByteIZNKS_7TracePC15CollectFeaturesIZNS_17AnalyzeDictionaryEPNS_6FuzzerERKNSt3__16vectorINS6_IhNS5_9allocatorIhEEEENS7_IS9_EEEERSB_E3$_0EEmT_EUlmmhE_EEmPKhSJ_mSG_', symObjAddr: 0x8EFC, symBinAddr: 0x1000AF954, symSize: 0x3D8 }
  - { offset: 0x18EF46, size: 0x8, addend: 0x0, symName: __ZNSt3__16vectorImNS_9allocatorImEEE9push_backB8nn200100ERKm, symObjAddr: 0x92D4, symBinAddr: 0x1000AFD2C, symSize: 0xF8 }
  - { offset: 0x18F393, size: 0x8, addend: 0x0, symName: '__ZN6fuzzer18ForEachNonZeroByteIZNKS_7TracePC15CollectFeaturesIZNS_17AnalyzeDictionaryEPNS_6FuzzerERKNSt3__16vectorINS6_IhNS5_9allocatorIhEEEENS7_IS9_EEEERSB_E3$_1EEmT_EUlmmhE_EEmPKhSJ_mSG_', symObjAddr: 0x93E0, symBinAddr: 0x1000AFE24, symSize: 0x3D8 }
  - { offset: 0x18F786, size: 0x8, addend: 0x0, symName: __ZNSt3__16vectorINS_12basic_stringIcNS_11char_traitsIcEENS_9allocatorIcEEEENS4_IS6_EEE9push_backB8nn200100EOS6_, symObjAddr: 0x3CA4, symBinAddr: 0x1000AA80C, symSize: 0x140 }
  - { offset: 0x18FC6A, size: 0x8, addend: 0x0, symName: __ZNSt3__16vectorINS_12basic_stringIcNS_11char_traitsIcEENS_9allocatorIcEEEENS4_IS6_EEED1B8nn200100Ev, symObjAddr: 0x3DE4, symBinAddr: 0x1000AA94C, symSize: 0x80 }
  - { offset: 0x18FDAC, size: 0x8, addend: 0x0, symName: __ZNSt3__16vectorINS_12basic_stringIcNS_11char_traitsIcEENS_9allocatorIcEEEENS4_IS6_EEED1B8nn200100Ev, symObjAddr: 0x3DE4, symBinAddr: 0x1000AA94C, symSize: 0x80 }
  - { offset: 0x19188F, size: 0x8, addend: 0x0, symName: __ZNSt3__16vectorINS_12basic_stringIcNS_11char_traitsIcEENS_9allocatorIcEEEENS4_IS6_EEE16__init_with_sizeB8nn200100IPPcSB_EEvT_T0_m, symObjAddr: 0x97B8, symBinAddr: 0x1000B01FC, symSize: 0x114 }
  - { offset: 0x191D7A, size: 0x8, addend: 0x0, symName: __ZNSt3__16vectorINS_12basic_stringIcNS_11char_traitsIcEENS_9allocatorIcEEEENS4_IS6_EEE24__emplace_back_slow_pathIJRKS6_EEEPS6_DpOT_, symObjAddr: 0x7824, symBinAddr: 0x1000AE290, symSize: 0x130 }
  - { offset: 0x1921F2, size: 0x8, addend: 0x0, symName: __ZNSt3__16vectorINS_6threadENS_9allocatorIS1_EEE8__appendEm, symObjAddr: 0x6F9C, symBinAddr: 0x1000ADA90, symSize: 0x278 }
  - { offset: 0x1927D7, size: 0x8, addend: 0x0, symName: __ZNSt3__16vectorINS_6threadENS_9allocatorIS1_EEE20__throw_length_errorB8nn200100Ev, symObjAddr: 0x7214, symBinAddr: 0x1000ADD08, symSize: 0x14 }
  - { offset: 0x1927E2, size: 0x8, addend: 0x0, symName: __ZN6fuzzer14FuzzingOptionsD2Ev, symObjAddr: 0x7614, symBinAddr: 0x1000AE108, symSize: 0x188 }
  - { offset: 0x1933D3, size: 0x8, addend: 0x0, symName: __ZN6fuzzer11InputCorpusC2ERKNSt3__112basic_stringIcNS1_11char_traitsIcEENS1_9allocatorIcEEEENS_15EntropicOptionsE, symObjAddr: 0x73EC, symBinAddr: 0x1000ADEE0, symSize: 0x190 }
  - { offset: 0x193CA9, size: 0x8, addend: 0x0, symName: __ZNSt3__16vectorINS0_IhNS_9allocatorIhEEEENS1_IS3_EEED1B8nn200100Ev, symObjAddr: 0x600C, symBinAddr: 0x1000ACB74, symSize: 0x84 }
  - { offset: 0x194168, size: 0x8, addend: 0x0, symName: __ZNSt3__16vectorIN6fuzzer9SizedFileENS_9allocatorIS2_EEE24__emplace_back_slow_pathIJS2_EEEPS2_DpOT_, symObjAddr: 0x7294, symBinAddr: 0x1000ADD88, symSize: 0x144 }
  - { offset: 0x19484B, size: 0x8, addend: 0x0, symName: __ZNSt3__16vectorIN6fuzzer9SizedFileENS_9allocatorIS2_EEE20__throw_length_errorB8nn200100Ev, symObjAddr: 0x73D8, symBinAddr: 0x1000ADECC, symSize: 0x14 }
  - { offset: 0x194861, size: 0x8, addend: 0x0, symName: _LLVMFuzzerRunDriver, symObjAddr: 0x6090, symBinAddr: 0x1000ACBF8, symSize: 0x4 }
  - { offset: 0x1948AD, size: 0x8, addend: 0x0, symName: _LLVMFuzzerRunDriver, symObjAddr: 0x6090, symBinAddr: 0x1000ACBF8, symSize: 0x4 }
  - { offset: 0x194A94, size: 0x8, addend: 0x0, symName: __ZNSt3__114__split_bufferINS_12basic_stringIcNS_11char_traitsIcEENS_9allocatorIcEEEERNS4_IS6_EEE12emplace_backIJRKS6_EEEvDpOT_, symObjAddr: 0x65A8, symBinAddr: 0x1000AD0B0, symSize: 0x218 }
  - { offset: 0x1952DF, size: 0x8, addend: 0x0, symName: __ZN6fuzzer7CommandC2ERKS0_, symObjAddr: 0x67C0, symBinAddr: 0x1000AD2C8, symSize: 0x110 }
  - { offset: 0x1953E8, size: 0x8, addend: 0x0, symName: __ZN6fuzzer7CommandC2ERKS0_, symObjAddr: 0x67C0, symBinAddr: 0x1000AD2C8, symSize: 0x110 }
  - { offset: 0x195761, size: 0x8, addend: 0x0, symName: __ZNSt3__124__put_character_sequenceB8nn200100IcNS_11char_traitsIcEEEERNS_13basic_ostreamIT_T0_EES7_PKS4_m, symObjAddr: 0x68D0, symBinAddr: 0x1000AD3D8, symSize: 0x124 }
  - { offset: 0x19629B, size: 0x8, addend: 0x0, symName: __ZNSt3__16vectorINS_6threadENS_9allocatorIS1_EEE20__throw_length_errorB8nn200100Ev, symObjAddr: 0x7214, symBinAddr: 0x1000ADD08, symSize: 0x14 }
  - { offset: 0x1962B3, size: 0x8, addend: 0x0, symName: __ZNSt3__114__thread_proxyB8nn200100INS_5tupleIJNS_10unique_ptrINS_15__thread_structENS_14default_deleteIS3_EEEEPFvRKN6fuzzer7CommandEPNS_6atomicIjEEjPNSB_IbEEENS_17reference_wrapperIS8_EESD_jSF_EEEEEPvSL_, symObjAddr: 0x7228, symBinAddr: 0x1000ADD1C, symSize: 0x6C }
  - { offset: 0x196541, size: 0x8, addend: 0x0, symName: __ZNSt3__16vectorIN6fuzzer9SizedFileENS_9allocatorIS2_EEE20__throw_length_errorB8nn200100Ev, symObjAddr: 0x73D8, symBinAddr: 0x1000ADECC, symSize: 0x14 }
  - { offset: 0x196559, size: 0x8, addend: 0x0, symName: __ZN6fuzzer11InputCorpusC2ERKNSt3__112basic_stringIcNS1_11char_traitsIcEENS1_9allocatorIcEEEENS_15EntropicOptionsE, symObjAddr: 0x73EC, symBinAddr: 0x1000ADEE0, symSize: 0x190 }
  - { offset: 0x196E99, size: 0x8, addend: 0x0, symName: __GLOBAL__sub_I_FuzzerDriver.cpp, symObjAddr: 0x9900, symBinAddr: 0x1000B0310, symSize: 0x1C }
  - { offset: 0x196EB1, size: 0x8, addend: 0x0, symName: __GLOBAL__sub_I_FuzzerDriver.cpp, symObjAddr: 0x9900, symBinAddr: 0x1000B0310, symSize: 0x1C }
  - { offset: 0x198D1B, size: 0x8, addend: 0x0, symName: __ZN6fuzzer17ExternalFunctionsC2Ev, symObjAddr: 0x0, symBinAddr: 0x1000B032C, symSize: 0x2F4 }
  - { offset: 0x1992FD, size: 0x8, addend: 0x0, symName: __ZN6fuzzer17ExternalFunctionsC2Ev, symObjAddr: 0x0, symBinAddr: 0x1000B032C, symSize: 0x2F4 }
  - { offset: 0x19998C, size: 0x8, addend: 0x0, symName: __ZN6fuzzer17ExternalFunctionsC1Ev, symObjAddr: 0x2F4, symBinAddr: 0x1000B0620, symSize: 0x4 }
  - { offset: 0x1999BA, size: 0x8, addend: 0x0, symName: __ZN6fuzzer17ExternalFunctionsC1Ev, symObjAddr: 0x2F4, symBinAddr: 0x1000B0620, symSize: 0x4 }
  - { offset: 0x19C5C6, size: 0x8, addend: 0x0, symName: __ZN6fuzzer18ExtraCountersBeginEv, symObjAddr: 0x0, symBinAddr: 0x1000B0624, symSize: 0x8 }
  - { offset: 0x19C5D9, size: 0x8, addend: 0x0, symName: __ZN6fuzzer18ExtraCountersBeginEv, symObjAddr: 0x0, symBinAddr: 0x1000B0624, symSize: 0x8 }
  - { offset: 0x19C5F7, size: 0x8, addend: 0x0, symName: __ZN6fuzzer16ExtraCountersEndEv, symObjAddr: 0x8, symBinAddr: 0x1000B062C, symSize: 0x8 }
  - { offset: 0x19C615, size: 0x8, addend: 0x0, symName: __ZN6fuzzer18ClearExtraCountersEv, symObjAddr: 0x10, symBinAddr: 0x1000B0634, symSize: 0x4 }
  - { offset: 0x19C78D, size: 0x8, addend: 0x0, symName: __ZN6fuzzer12WorkerThreadEPNS_8JobQueueES1_, symObjAddr: 0x0, symBinAddr: 0x1000B0638, symSize: 0xC4 }
  - { offset: 0x1AD4B2, size: 0x8, addend: 0x0, symName: __ZNSt3__1rsB8nn200100IcNS_11char_traitsIcEENS_9allocatorIcEEEERNS_13basic_istreamIT_T0_EES9_RNS_12basic_stringIS6_S7_T1_EE, symObjAddr: 0x6FC8, symBinAddr: 0x1000B5E7C, symSize: 0x1D0 }
  - { offset: 0x1BBDC0, size: 0x8, addend: 0x0, symName: __ZNK6fuzzer7Command12getFlagValueERKNSt3__112basic_stringIcNS1_11char_traitsIcEENS1_9allocatorIcEEEE, symObjAddr: 0x6B40, symBinAddr: 0x1000B59F4, symSize: 0x288 }
  - { offset: 0x1BE9BD, size: 0x8, addend: 0x0, symName: __ZNSt3__114__thread_proxyB8nn200100INS_5tupleIJNS_10unique_ptrINS_15__thread_structENS_14default_deleteIS3_EEEEPFvPN6fuzzer8JobQueueES9_ES9_S9_EEEEEPvSD_, symObjAddr: 0x8CD8, symBinAddr: 0x1000B65F8, symSize: 0x64 }
  - { offset: 0x1C009C, size: 0x8, addend: 0x0, symName: __ZN6fuzzer12WorkerThreadEPNS_8JobQueueES1_, symObjAddr: 0x0, symBinAddr: 0x1000B0638, symSize: 0xC4 }
  - { offset: 0x1C047A, size: 0x8, addend: 0x0, symName: __ZN6fuzzer12FuzzWithForkERNS_6RandomERKNS_14FuzzingOptionsERKNSt3__16vectorINS5_12basic_stringIcNS5_11char_traitsIcEENS5_9allocatorIcEEEENSA_ISC_EEEESG_i, symObjAddr: 0x1A4, symBinAddr: 0x1000B07DC, symSize: 0x1838 }
  - { offset: 0x1C6B61, size: 0x8, addend: 0x0, symName: __ZNSt3__13setIjNS_4lessIjEENS_9allocatorIjEEE6insertB8nn200100INS_21__tree_const_iteratorIjPNS_11__tree_nodeIjPvEElEEEEvT_SD_, symObjAddr: 0x19DC, symBinAddr: 0x1000B2014, symSize: 0x104 }
  - { offset: 0x1C84C0, size: 0x8, addend: 0x0, symName: __ZN6fuzzer8JobQueue3PopEv, symObjAddr: 0xC4, symBinAddr: 0x1000B06FC, symSize: 0xE0 }
  - { offset: 0x1C87BE, size: 0x8, addend: 0x0, symName: __ZNSt3__15dequeIPN6fuzzer7FuzzJobENS_9allocatorIS3_EEE19__add_back_capacityEv, symObjAddr: 0x436C, symBinAddr: 0x1000B486C, symSize: 0x2F4 }
  - { offset: 0x1C9368, size: 0x8, addend: 0x0, symName: __ZNSt3__114__split_bufferIPPN6fuzzer7FuzzJobENS_9allocatorIS4_EEE12emplace_backIJRS4_EEEvDpOT_, symObjAddr: 0x4660, symBinAddr: 0x1000B4B60, symSize: 0x180 }
  - { offset: 0x1CBAFC, size: 0x8, addend: 0x0, symName: __ZNSt3__16vectorINS_12basic_stringIcNS_11char_traitsIcEENS_9allocatorIcEEEENS4_IS6_EEE18__assign_with_sizeB8nn200100IPS6_SA_EEvT_T0_l, symObjAddr: 0x7330, symBinAddr: 0x1000B61BC, symSize: 0x28C }
  - { offset: 0x1CC7E1, size: 0x8, addend: 0x0, symName: __ZNSt3__13setIjNS_4lessIjEENS_9allocatorIjEEE6insertB8nn200100INS_21__tree_const_iteratorIjPNS_11__tree_nodeIjPvEElEEEEvT_SD_, symObjAddr: 0x19DC, symBinAddr: 0x1000B2014, symSize: 0x104 }
  - { offset: 0x1CC827, size: 0x8, addend: 0x0, symName: __ZNSt3__13setIjNS_4lessIjEENS_9allocatorIjEEE6insertB8nn200100INS_21__tree_const_iteratorIjPNS_11__tree_nodeIjPvEElEEEEvT_SD_, symObjAddr: 0x19DC, symBinAddr: 0x1000B2014, symSize: 0x104 }
  - { offset: 0x1CCBED, size: 0x8, addend: 0x0, symName: __ZN6fuzzer9GlobalEnv12CreateNewJobEm, symObjAddr: 0x1AE0, symBinAddr: 0x1000B2118, symSize: 0x16C8 }
  - { offset: 0x1D3DFF, size: 0x8, addend: 0x0, symName: '__ZZN6fuzzer12FuzzWithForkERNS_6RandomERKNS_14FuzzingOptionsERKNSt3__16vectorINS5_12basic_stringIcNS5_11char_traitsIcEENS5_9allocatorIcEEEENSA_ISC_EEEESG_iENK3$_0clEv', symObjAddr: 0x31A8, symBinAddr: 0x1000B37E0, symSize: 0x19C }
  - { offset: 0x1D3E0A, size: 0x8, addend: 0x0, symName: __ZN6fuzzer7FuzzJobD2Ev, symObjAddr: 0x8D50, symBinAddr: 0x1000B665C, symSize: 0x17C }
  - { offset: 0x1D47C8, size: 0x8, addend: 0x0, symName: __ZN6fuzzer9GlobalEnv14RunOneMergeJobEPNS_7FuzzJobE, symObjAddr: 0x3344, symBinAddr: 0x1000B397C, symSize: 0xEAC }
  - { offset: 0x1D843C, size: 0x8, addend: 0x0, symName: '__ZZN6fuzzer12FuzzWithForkERNS_6RandomERKNS_14FuzzingOptionsERKNSt3__16vectorINS5_12basic_stringIcNS5_11char_traitsIcEENS5_9allocatorIcEEEENSA_ISC_EEEESG_iENK3$_0clEv', symObjAddr: 0x31A8, symBinAddr: 0x1000B37E0, symSize: 0x19C }
  - { offset: 0x1D8C89, size: 0x8, addend: 0x0, symName: __ZNK6fuzzer9GlobalEnv26secondsSinceProcessStartUpEv, symObjAddr: 0x4328, symBinAddr: 0x1000B4828, symSize: 0x44 }
  - { offset: 0x1D8D3E, size: 0x8, addend: 0x0, symName: __ZNSt3__16vectorINS_12basic_stringIcNS_11char_traitsIcEENS_9allocatorIcEEEENS4_IS6_EEE18__assign_with_sizeB8nn200100IPS6_SA_EEvT_T0_l, symObjAddr: 0x7330, symBinAddr: 0x1000B61BC, symSize: 0x28C }
  - { offset: 0x1D8D53, size: 0x8, addend: 0x0, symName: __ZN6fuzzer7FuzzJobD2Ev, symObjAddr: 0x8D50, symBinAddr: 0x1000B665C, symSize: 0x17C }
  - { offset: 0x1D9013, size: 0x8, addend: 0x0, symName: __ZNSt3__16__treeIjNS_4lessIjEENS_9allocatorIjEEE12__find_equalIjEERPNS_16__tree_node_baseIPvEENS_21__tree_const_iteratorIjPNS_11__tree_nodeIjS8_EElEERPNS_15__tree_end_nodeISA_EESB_RKT_, symObjAddr: 0x8B28, symBinAddr: 0x1000B6448, symSize: 0x1B0 }
  - { offset: 0x1D9079, size: 0x8, addend: 0x0, symName: __ZNSt3__16__treeIjNS_4lessIjEENS_9allocatorIjEEE12__find_equalIjEERPNS_16__tree_node_baseIPvEENS_21__tree_const_iteratorIjPNS_11__tree_nodeIjS8_EElEERPNS_15__tree_end_nodeISA_EESB_RKT_, symObjAddr: 0x8B28, symBinAddr: 0x1000B6448, symSize: 0x1B0 }
  - { offset: 0x1D9095, size: 0x8, addend: 0x0, symName: __ZNSt3__16__treeIjNS_4lessIjEENS_9allocatorIjEEE12__find_equalIjEERPNS_16__tree_node_baseIPvEENS_21__tree_const_iteratorIjPNS_11__tree_nodeIjS8_EElEERPNS_15__tree_end_nodeISA_EESB_RKT_, symObjAddr: 0x8B28, symBinAddr: 0x1000B6448, symSize: 0x1B0 }
  - { offset: 0x1DA793, size: 0x8, addend: 0x0, symName: __ZN6fuzzer9GlobalEnv8StopFileEv, symObjAddr: 0x5074, symBinAddr: 0x1000B4FEC, symSize: 0xF0 }
  - { offset: 0x1DA79E, size: 0x8, addend: 0x0, symName: __ZN6fuzzer9GlobalEnv8StopFileEv, symObjAddr: 0x5074, symBinAddr: 0x1000B4FEC, symSize: 0xF0 }
  - { offset: 0x1DAB4D, size: 0x8, addend: 0x0, symName: __ZNK6fuzzer7Command7hasFlagERKNSt3__112basic_stringIcNS1_11char_traitsIcEENS1_9allocatorIcEEEE, symObjAddr: 0x5164, symBinAddr: 0x1000B50DC, symSize: 0x19C }
  - { offset: 0x1DAB58, size: 0x8, addend: 0x0, symName: __ZNK6fuzzer7Command7hasFlagERKNSt3__112basic_stringIcNS1_11char_traitsIcEENS1_9allocatorIcEEEE, symObjAddr: 0x5164, symBinAddr: 0x1000B50DC, symSize: 0x19C }
  - { offset: 0x1DB135, size: 0x8, addend: 0x0, symName: __ZN6fuzzer9GlobalEnv10CollectDFTERKNSt3__112basic_stringIcNS1_11char_traitsIcEENS1_9allocatorIcEEEE, symObjAddr: 0x5300, symBinAddr: 0x1000B5278, symSize: 0x570 }
  - { offset: 0x1DB140, size: 0x8, addend: 0x0, symName: __ZN6fuzzer9GlobalEnv10CollectDFTERKNSt3__112basic_stringIcNS1_11char_traitsIcEENS1_9allocatorIcEEEE, symObjAddr: 0x5300, symBinAddr: 0x1000B5278, symSize: 0x570 }
  - { offset: 0x1DE536, size: 0x8, addend: 0x0, symName: __ZNSt3__16vectorIN6fuzzer9SizedFileENS_9allocatorIS2_EEE24__emplace_back_slow_pathIJRKS2_EEEPS2_DpOT_, symObjAddr: 0x7198, symBinAddr: 0x1000B604C, symSize: 0x170 }
  - { offset: 0x1DEC65, size: 0x8, addend: 0x0, symName: __ZNK6fuzzer7Command12getFlagValueERKNSt3__112basic_stringIcNS1_11char_traitsIcEENS1_9allocatorIcEEEE, symObjAddr: 0x6B40, symBinAddr: 0x1000B59F4, symSize: 0x288 }
  - { offset: 0x1DF6CA, size: 0x8, addend: 0x0, symName: __ZNSt3__16vectorImNS_9allocatorImEEE6insertENS_11__wrap_iterIPKmEERS5_, symObjAddr: 0x6DC8, symBinAddr: 0x1000B5C7C, symSize: 0x200 }
  - { offset: 0x1DF6D5, size: 0x8, addend: 0x0, symName: __ZNSt3__16vectorImNS_9allocatorImEEE6insertENS_11__wrap_iterIPKmEERS5_, symObjAddr: 0x6DC8, symBinAddr: 0x1000B5C7C, symSize: 0x200 }
  - { offset: 0x1DFF1C, size: 0x8, addend: 0x0, symName: __ZNSt3__1rsB8nn200100IcNS_11char_traitsIcEENS_9allocatorIcEEEERNS_13basic_istreamIT_T0_EES9_RNS_12basic_stringIS6_S7_T1_EE, symObjAddr: 0x6FC8, symBinAddr: 0x1000B5E7C, symSize: 0x1D0 }
  - { offset: 0x1E03F0, size: 0x8, addend: 0x0, symName: __ZNSt3__114__split_bufferIPPN6fuzzer7FuzzJobENS_9allocatorIS4_EEE12emplace_backIJRS4_EEEvDpOT_, symObjAddr: 0x4660, symBinAddr: 0x1000B4B60, symSize: 0x180 }
  - { offset: 0x1E08D0, size: 0x8, addend: 0x0, symName: __ZNSt3__114__split_bufferIPPN6fuzzer7FuzzJobENS_9allocatorIS4_EEE12emplace_backIJS4_EEEvDpOT_, symObjAddr: 0x47E0, symBinAddr: 0x1000B4CE0, symSize: 0x180 }
  - { offset: 0x1E08E6, size: 0x8, addend: 0x0, symName: __ZNSt3__114__split_bufferIPPN6fuzzer7FuzzJobENS_9allocatorIS4_EEE12emplace_backIJS4_EEEvDpOT_, symObjAddr: 0x47E0, symBinAddr: 0x1000B4CE0, symSize: 0x180 }
  - { offset: 0x1E0DC6, size: 0x8, addend: 0x0, symName: __ZNSt3__114__split_bufferIPPN6fuzzer7FuzzJobENS_9allocatorIS4_EEE13emplace_frontIJS4_EEEvDpOT_, symObjAddr: 0x4960, symBinAddr: 0x1000B4E60, symSize: 0x18C }
  - { offset: 0x1E0DDC, size: 0x8, addend: 0x0, symName: __ZNSt3__114__split_bufferIPPN6fuzzer7FuzzJobENS_9allocatorIS4_EEE13emplace_frontIJS4_EEEvDpOT_, symObjAddr: 0x4960, symBinAddr: 0x1000B4E60, symSize: 0x18C }
  - { offset: 0x1E14B5, size: 0x8, addend: 0x0, symName: __ZNSt3__16__treeINS_12basic_stringIcNS_11char_traitsIcEENS_9allocatorIcEEEENS_4lessIS6_EENS4_IS6_EEE25__emplace_unique_key_argsIS6_JRKS6_EEENS_4pairINS_15__tree_iteratorIS6_PNS_11__tree_nodeIS6_PvEElEEbEERKT_DpOT0_, symObjAddr: 0x5F10, symBinAddr: 0x1000B57E8, symSize: 0xE0 }
  - { offset: 0x1E1BF3, size: 0x8, addend: 0x0, symName: __ZNSt3__16__treeINS_12basic_stringIcNS_11char_traitsIcEENS_9allocatorIcEEEENS_4lessIS6_EENS4_IS6_EEE12__find_equalIS6_EERPNS_16__tree_node_baseIPvEERPNS_15__tree_end_nodeISF_EERKT_, symObjAddr: 0x5FF0, symBinAddr: 0x1000B58C8, symSize: 0x12C }
  - { offset: 0x1E5434, size: 0x8, addend: 0x0, symName: __ZN6fuzzerL10OutputFileE, symObjAddr: 0x61178, symBinAddr: 0x10017D5C0, symSize: 0x0 }
  - { offset: 0x1E54A5, size: 0x8, addend: 0x0, symName: __ZN6fuzzer13GetOutputFileEv, symObjAddr: 0x0, symBinAddr: 0x1000B67D8, symSize: 0xC }
  - { offset: 0x1E54C3, size: 0x8, addend: 0x0, symName: __ZN6fuzzer13SetOutputFileEP7__sFILE, symObjAddr: 0xC, symBinAddr: 0x1000B67E4, symSize: 0xC }
  - { offset: 0x1E54EC, size: 0x8, addend: 0x0, symName: __ZN6fuzzer8GetEpochERKNSt3__112basic_stringIcNS0_11char_traitsIcEENS0_9allocatorIcEEEE, symObjAddr: 0x18, symBinAddr: 0x1000B67F0, symSize: 0x54 }
  - { offset: 0x1E5598, size: 0x8, addend: 0x0, symName: __ZN6fuzzer12FileToVectorERKNSt3__112basic_stringIcNS0_11char_traitsIcEENS0_9allocatorIcEEEEmb, symObjAddr: 0x6C, symBinAddr: 0x1000B6844, symSize: 0x2BC }
  - { offset: 0x1E5A68, size: 0x8, addend: 0x0, symName: __ZN6fuzzer6PrintfEPKcz, symObjAddr: 0x328, symBinAddr: 0x1000B6B00, symSize: 0x44 }
  - { offset: 0x1E5A79, size: 0x8, addend: 0x0, symName: __ZN6fuzzer6PrintfEPKcz, symObjAddr: 0x328, symBinAddr: 0x1000B6B00, symSize: 0x44 }
  - { offset: 0x1E5ADD, size: 0x8, addend: 0x0, symName: __ZN6fuzzer12FileToStringERKNSt3__112basic_stringIcNS0_11char_traitsIcEENS0_9allocatorIcEEEE, symObjAddr: 0x36C, symBinAddr: 0x1000B6B44, symSize: 0x1E4 }
  - { offset: 0x1E5EB4, size: 0x8, addend: 0x0, symName: __ZN6fuzzer13CopyFileToErrERKNSt3__112basic_stringIcNS0_11char_traitsIcEENS0_9allocatorIcEEEE, symObjAddr: 0x550, symBinAddr: 0x1000B6D28, symSize: 0x78 }
  - { offset: 0x1E60C3, size: 0x8, addend: 0x0, symName: __ZN6fuzzer4PutsEPKc, symObjAddr: 0x5C8, symBinAddr: 0x1000B6DA0, symSize: 0x28 }
  - { offset: 0x1E613D, size: 0x8, addend: 0x0, symName: __ZN6fuzzer11WriteToFileERKNSt3__16vectorIhNS0_9allocatorIhEEEERKNS0_12basic_stringIcNS0_11char_traitsIcEENS2_IcEEEE, symObjAddr: 0x5F0, symBinAddr: 0x1000B6DC8, symSize: 0x70 }
  - { offset: 0x1E6286, size: 0x8, addend: 0x0, symName: __ZN6fuzzer11WriteToFileEPKhmRKNSt3__112basic_stringIcNS2_11char_traitsIcEENS2_9allocatorIcEEEE, symObjAddr: 0x660, symBinAddr: 0x1000B6E38, symSize: 0x74 }
  - { offset: 0x1E6374, size: 0x8, addend: 0x0, symName: __ZN6fuzzer11WriteToFileERKNSt3__112basic_stringIcNS0_11char_traitsIcEENS0_9allocatorIcEEEES8_, symObjAddr: 0x6D4, symBinAddr: 0x1000B6EAC, symSize: 0x8C }
  - { offset: 0x1E6537, size: 0x8, addend: 0x0, symName: __ZN6fuzzer12AppendToFileERKNSt3__112basic_stringIcNS0_11char_traitsIcEENS0_9allocatorIcEEEES8_, symObjAddr: 0x760, symBinAddr: 0x1000B6F38, symSize: 0x8C }
  - { offset: 0x1E66AC, size: 0x8, addend: 0x0, symName: __ZN6fuzzer12AppendToFileEPKhmRKNSt3__112basic_stringIcNS2_11char_traitsIcEENS2_9allocatorIcEEEE, symObjAddr: 0x7EC, symBinAddr: 0x1000B6FC4, symSize: 0x74 }
  - { offset: 0x1E67C1, size: 0x8, addend: 0x0, symName: __ZN6fuzzer22ReadDirToVectorOfUnitsEPKcPNSt3__16vectorINS3_IhNS2_9allocatorIhEEEENS4_IS6_EEEEPlmbPNS3_INS2_12basic_stringIcNS2_11char_traitsIcEENS4_IcEEEENS4_ISF_EEEE, symObjAddr: 0x860, symBinAddr: 0x1000B7038, symSize: 0x37C }
  - { offset: 0x1E779D, size: 0x8, addend: 0x0, symName: __ZN6fuzzer20GetSizedFilesFromDirERKNSt3__112basic_stringIcNS0_11char_traitsIcEENS0_9allocatorIcEEEEPNS0_6vectorINS_9SizedFileENS4_ISA_EEEE, symObjAddr: 0xBDC, symBinAddr: 0x1000B73B4, symSize: 0x174 }
  - { offset: 0x1E77C8, size: 0x8, addend: 0x0, symName: __ZN6fuzzer20GetSizedFilesFromDirERKNSt3__112basic_stringIcNS0_11char_traitsIcEENS0_9allocatorIcEEEEPNS0_6vectorINS_9SizedFileENS4_ISA_EEEE, symObjAddr: 0xBDC, symBinAddr: 0x1000B73B4, symSize: 0x174 }
  - { offset: 0x1E7F1E, size: 0x8, addend: 0x0, symName: __ZN6fuzzer11DirPlusFileERKNSt3__112basic_stringIcNS0_11char_traitsIcEENS0_9allocatorIcEEEES8_, symObjAddr: 0xD50, symBinAddr: 0x1000B7528, symSize: 0x138 }
  - { offset: 0x1E8510, size: 0x8, addend: 0x0, symName: __ZN6fuzzer17DupAndCloseStderrEv, symObjAddr: 0xE88, symBinAddr: 0x1000B7660, symSize: 0x70 }
  - { offset: 0x1E852A, size: 0x8, addend: 0x0, symName: __ZN6fuzzer17DupAndCloseStderrEv, symObjAddr: 0xE88, symBinAddr: 0x1000B7660, symSize: 0x70 }
  - { offset: 0x1E861E, size: 0x8, addend: 0x0, symName: __ZN6fuzzer11CloseStdoutEv, symObjAddr: 0xEF8, symBinAddr: 0x1000B76D0, symSize: 0x8 }
  - { offset: 0x1E864D, size: 0x8, addend: 0x0, symName: __ZN6fuzzer7VPrintfEbPKcz, symObjAddr: 0xF00, symBinAddr: 0x1000B76D8, symSize: 0x44 }
  - { offset: 0x1E86B9, size: 0x8, addend: 0x0, symName: __ZN6fuzzer14MkDirRecursiveERKNSt3__112basic_stringIcNS0_11char_traitsIcEENS0_9allocatorIcEEEE, symObjAddr: 0xF44, symBinAddr: 0x1000B771C, symSize: 0x60 }
  - { offset: 0x1E876E, size: 0x8, addend: 0x0, symName: __ZN6fuzzerL19MkDirRecursiveInnerERKNSt3__112basic_stringIcNS0_11char_traitsIcEENS0_9allocatorIcEEEE, symObjAddr: 0xFA4, symBinAddr: 0x1000B777C, symSize: 0xFC }
  - { offset: 0x1E8A71, size: 0x8, addend: 0x0, symName: __ZN6fuzzer14RmDirRecursiveERKNSt3__112basic_stringIcNS0_11char_traitsIcEENS0_9allocatorIcEEEE, symObjAddr: 0x10A0, symBinAddr: 0x1000B7878, symSize: 0x1C }
  - { offset: 0x1E8AA2, size: 0x8, addend: 0x0, symName: __ZN6fuzzer14RmDirRecursiveERKNSt3__112basic_stringIcNS0_11char_traitsIcEENS0_9allocatorIcEEEE, symObjAddr: 0x10A0, symBinAddr: 0x1000B7878, symSize: 0x1C }
  - { offset: 0x1E8B69, size: 0x8, addend: 0x0, symName: __ZN6fuzzer8TempPathEPKcS1_, symObjAddr: 0x10BC, symBinAddr: 0x1000B7894, symSize: 0x22C }
  - { offset: 0x1FA257, size: 0x8, addend: 0x0, symName: '__ZZN6fuzzer14RmDirRecursiveERKNSt3__112basic_stringIcNS0_11char_traitsIcEENS0_9allocatorIcEEEEEN3$_08__invokeES8_', symObjAddr: 0x1318, symBinAddr: 0x1000B7AC0, symSize: 0x4 }
  - { offset: 0x1FE1FD, size: 0x8, addend: 0x0, symName: '__ZZN6fuzzer14RmDirRecursiveERKNSt3__112basic_stringIcNS0_11char_traitsIcEENS0_9allocatorIcEEEEEN3$_08__invokeES8_', symObjAddr: 0x1318, symBinAddr: 0x1000B7AC0, symSize: 0x4 }
  - { offset: 0x1FE256, size: 0x8, addend: 0x0, symName: '__ZZN6fuzzer14RmDirRecursiveERKNSt3__112basic_stringIcNS0_11char_traitsIcEENS0_9allocatorIcEEEEEN3$_18__invokeES8_', symObjAddr: 0x131C, symBinAddr: 0x1000B7AC4, symSize: 0x4 }
  - { offset: 0x1FE27F, size: 0x8, addend: 0x0, symName: '__ZZN6fuzzer14RmDirRecursiveERKNSt3__112basic_stringIcNS0_11char_traitsIcEENS0_9allocatorIcEEEEEN3$_18__invokeES8_', symObjAddr: 0x131C, symBinAddr: 0x1000B7AC4, symSize: 0x4 }
  - { offset: 0x1FE29C, size: 0x8, addend: 0x0, symName: '__ZZN6fuzzer14RmDirRecursiveERKNSt3__112basic_stringIcNS0_11char_traitsIcEENS0_9allocatorIcEEEEEN3$_18__invokeES8_', symObjAddr: 0x131C, symBinAddr: 0x1000B7AC4, symSize: 0x4 }
  - { offset: 0x1FE2E3, size: 0x8, addend: 0x0, symName: '__ZZN6fuzzer14RmDirRecursiveERKNSt3__112basic_stringIcNS0_11char_traitsIcEENS0_9allocatorIcEEEEEN3$_28__invokeES8_', symObjAddr: 0x1320, symBinAddr: 0x1000B7AC8, symSize: 0x4 }
  - { offset: 0x1FE30C, size: 0x8, addend: 0x0, symName: '__ZZN6fuzzer14RmDirRecursiveERKNSt3__112basic_stringIcNS0_11char_traitsIcEENS0_9allocatorIcEEEEEN3$_28__invokeES8_', symObjAddr: 0x1320, symBinAddr: 0x1000B7AC8, symSize: 0x4 }
  - { offset: 0x1FE329, size: 0x8, addend: 0x0, symName: '__ZZN6fuzzer14RmDirRecursiveERKNSt3__112basic_stringIcNS0_11char_traitsIcEENS0_9allocatorIcEEEEEN3$_28__invokeES8_', symObjAddr: 0x1320, symBinAddr: 0x1000B7AC8, symSize: 0x4 }
  - { offset: 0x1FE94F, size: 0x8, addend: 0x0, symName: __GLOBAL__sub_I_FuzzerIO.cpp, symObjAddr: 0x17EC, symBinAddr: 0x1000B7ACC, symSize: 0x18 }
  - { offset: 0x1FE961, size: 0x8, addend: 0x0, symName: __GLOBAL__sub_I_FuzzerIO.cpp, symObjAddr: 0x17EC, symBinAddr: 0x1000B7ACC, symSize: 0x18 }
  - { offset: 0x1FE979, size: 0x8, addend: 0x0, symName: __GLOBAL__sub_I_FuzzerIO.cpp, symObjAddr: 0x17EC, symBinAddr: 0x1000B7ACC, symSize: 0x18 }
  - { offset: 0x20060D, size: 0x8, addend: 0x0, symName: __ZN6fuzzer6IsFileERKNSt3__112basic_stringIcNS0_11char_traitsIcEENS0_9allocatorIcEEEE, symObjAddr: 0x0, symBinAddr: 0x1000B7AE4, symSize: 0x60 }
  - { offset: 0x200632, size: 0x8, addend: 0x0, symName: __ZN6fuzzer10getDevNullEv, symObjAddr: 0xECC, symBinAddr: 0x1000B890C, symSize: 0x80 }
  - { offset: 0x20065C, size: 0x8, addend: 0x0, symName: __MergedGlobals, symObjAddr: 0x24BE8, symBinAddr: 0x10017D5C8, symSize: 0x0 }
  - { offset: 0x20067D, size: 0x8, addend: 0x0, symName: __ZN6fuzzer6IsFileERKNSt3__112basic_stringIcNS0_11char_traitsIcEENS0_9allocatorIcEEEE, symObjAddr: 0x0, symBinAddr: 0x1000B7AE4, symSize: 0x60 }
  - { offset: 0x20072A, size: 0x8, addend: 0x0, symName: __ZN6fuzzer11IsDirectoryERKNSt3__112basic_stringIcNS0_11char_traitsIcEENS0_9allocatorIcEEEE, symObjAddr: 0x60, symBinAddr: 0x1000B7B44, symSize: 0x60 }
  - { offset: 0x2007D6, size: 0x8, addend: 0x0, symName: __ZN6fuzzer8FileSizeERKNSt3__112basic_stringIcNS0_11char_traitsIcEENS0_9allocatorIcEEEE, symObjAddr: 0xC0, symBinAddr: 0x1000B7BA4, symSize: 0x54 }
  - { offset: 0x200898, size: 0x8, addend: 0x0, symName: __ZN6fuzzer8BasenameERKNSt3__112basic_stringIcNS0_11char_traitsIcEENS0_9allocatorIcEEEE, symObjAddr: 0x114, symBinAddr: 0x1000B7BF8, symSize: 0x124 }
  - { offset: 0x200C3B, size: 0x8, addend: 0x0, symName: __ZN6fuzzer12GetSeparatorEv, symObjAddr: 0x238, symBinAddr: 0x1000B7D1C, symSize: 0x8 }
  - { offset: 0x200C46, size: 0x8, addend: 0x0, symName: __ZN6fuzzer12GetSeparatorEv, symObjAddr: 0x238, symBinAddr: 0x1000B7D1C, symSize: 0x8 }
  - { offset: 0x200CB2, size: 0x8, addend: 0x0, symName: __ZN6fuzzer23ListFilesInDirRecursiveERKNSt3__112basic_stringIcNS0_11char_traitsIcEENS0_9allocatorIcEEEEPlPNS0_6vectorIS6_NS4_IS6_EEEEb, symObjAddr: 0x240, symBinAddr: 0x1000B7D24, symSize: 0x404 }
  - { offset: 0x201AA3, size: 0x8, addend: 0x0, symName: __ZN6fuzzer19IterateDirRecursiveERKNSt3__112basic_stringIcNS0_11char_traitsIcEENS0_9allocatorIcEEEEPFvS8_ESA_SA_, symObjAddr: 0x6E8, symBinAddr: 0x1000B8128, symSize: 0x258 }
  - { offset: 0x202235, size: 0x8, addend: 0x0, symName: __ZN6fuzzer11IsSeparatorEc, symObjAddr: 0x940, symBinAddr: 0x1000B8380, symSize: 0xC }
  - { offset: 0x202240, size: 0x8, addend: 0x0, symName: __ZN6fuzzer11IsSeparatorEc, symObjAddr: 0x940, symBinAddr: 0x1000B8380, symSize: 0xC }
  - { offset: 0x20226E, size: 0x8, addend: 0x0, symName: __ZN6fuzzer8OpenFileEiPKc, symObjAddr: 0x94C, symBinAddr: 0x1000B838C, symSize: 0x4 }
  - { offset: 0x2022AC, size: 0x8, addend: 0x0, symName: __ZN6fuzzer8OpenFileEiPKc, symObjAddr: 0x94C, symBinAddr: 0x1000B838C, symSize: 0x4 }
  - { offset: 0x2022C6, size: 0x8, addend: 0x0, symName: __ZN6fuzzer9CloseFileEi, symObjAddr: 0x950, symBinAddr: 0x1000B8390, symSize: 0x4 }
  - { offset: 0x2022F6, size: 0x8, addend: 0x0, symName: __ZN6fuzzer9CloseFileEi, symObjAddr: 0x950, symBinAddr: 0x1000B8390, symSize: 0x4 }
  - { offset: 0x202309, size: 0x8, addend: 0x0, symName: __ZN6fuzzer13DuplicateFileEi, symObjAddr: 0x954, symBinAddr: 0x1000B8394, symSize: 0x4 }
  - { offset: 0x202339, size: 0x8, addend: 0x0, symName: __ZN6fuzzer13DuplicateFileEi, symObjAddr: 0x954, symBinAddr: 0x1000B8394, symSize: 0x4 }
  - { offset: 0x20234C, size: 0x8, addend: 0x0, symName: __ZN6fuzzer10RemoveFileERKNSt3__112basic_stringIcNS0_11char_traitsIcEENS0_9allocatorIcEEEE, symObjAddr: 0x958, symBinAddr: 0x1000B8398, symSize: 0x14 }
  - { offset: 0x202378, size: 0x8, addend: 0x0, symName: __ZN6fuzzer10RemoveFileERKNSt3__112basic_stringIcNS0_11char_traitsIcEENS0_9allocatorIcEEEE, symObjAddr: 0x958, symBinAddr: 0x1000B8398, symSize: 0x14 }
  - { offset: 0x202393, size: 0x8, addend: 0x0, symName: __ZN6fuzzer10RemoveFileERKNSt3__112basic_stringIcNS0_11char_traitsIcEENS0_9allocatorIcEEEE, symObjAddr: 0x958, symBinAddr: 0x1000B8398, symSize: 0x14 }
  - { offset: 0x2023AF, size: 0x8, addend: 0x0, symName: __ZN6fuzzer10RemoveFileERKNSt3__112basic_stringIcNS0_11char_traitsIcEENS0_9allocatorIcEEEE, symObjAddr: 0x958, symBinAddr: 0x1000B8398, symSize: 0x14 }
  - { offset: 0x2023CB, size: 0x8, addend: 0x0, symName: __ZN6fuzzer10RemoveFileERKNSt3__112basic_stringIcNS0_11char_traitsIcEENS0_9allocatorIcEEEE, symObjAddr: 0x958, symBinAddr: 0x1000B8398, symSize: 0x14 }
  - { offset: 0x2023F7, size: 0x8, addend: 0x0, symName: __ZN6fuzzer10RenameFileERKNSt3__112basic_stringIcNS0_11char_traitsIcEENS0_9allocatorIcEEEES8_, symObjAddr: 0x96C, symBinAddr: 0x1000B83AC, symSize: 0x24 }
  - { offset: 0x202432, size: 0x8, addend: 0x0, symName: __ZN6fuzzer10RenameFileERKNSt3__112basic_stringIcNS0_11char_traitsIcEENS0_9allocatorIcEEEES8_, symObjAddr: 0x96C, symBinAddr: 0x1000B83AC, symSize: 0x24 }
  - { offset: 0x20244D, size: 0x8, addend: 0x0, symName: __ZN6fuzzer10RenameFileERKNSt3__112basic_stringIcNS0_11char_traitsIcEENS0_9allocatorIcEEEES8_, symObjAddr: 0x96C, symBinAddr: 0x1000B83AC, symSize: 0x24 }
  - { offset: 0x202469, size: 0x8, addend: 0x0, symName: __ZN6fuzzer10RenameFileERKNSt3__112basic_stringIcNS0_11char_traitsIcEENS0_9allocatorIcEEEES8_, symObjAddr: 0x96C, symBinAddr: 0x1000B83AC, symSize: 0x24 }
  - { offset: 0x202485, size: 0x8, addend: 0x0, symName: __ZN6fuzzer10RenameFileERKNSt3__112basic_stringIcNS0_11char_traitsIcEENS0_9allocatorIcEEEES8_, symObjAddr: 0x96C, symBinAddr: 0x1000B83AC, symSize: 0x24 }
  - { offset: 0x202524, size: 0x8, addend: 0x0, symName: __ZN6fuzzer15GetHandleFromFdEi, symObjAddr: 0x990, symBinAddr: 0x1000B83D0, symSize: 0x8 }
  - { offset: 0x202551, size: 0x8, addend: 0x0, symName: __ZN6fuzzer7DirNameERKNSt3__112basic_stringIcNS0_11char_traitsIcEENS0_9allocatorIcEEEE, symObjAddr: 0x998, symBinAddr: 0x1000B83D8, symSize: 0xF8 }
  - { offset: 0x2028E2, size: 0x8, addend: 0x0, symName: __ZN6fuzzer6TmpDirEv, symObjAddr: 0xA90, symBinAddr: 0x1000B84D0, symSize: 0x120 }
  - { offset: 0x2028EC, size: 0x8, addend: 0x0, symName: __ZN6fuzzer6TmpDirEv, symObjAddr: 0xA90, symBinAddr: 0x1000B84D0, symSize: 0x120 }
  - { offset: 0x202E17, size: 0x8, addend: 0x0, symName: __ZN6fuzzer25IsInterestingCoverageFileERKNSt3__112basic_stringIcNS0_11char_traitsIcEENS0_9allocatorIcEEEE, symObjAddr: 0xBB0, symBinAddr: 0x1000B85F0, symSize: 0x2C4 }
  - { offset: 0x202E21, size: 0x8, addend: 0x0, symName: __ZN6fuzzer25IsInterestingCoverageFileERKNSt3__112basic_stringIcNS0_11char_traitsIcEENS0_9allocatorIcEEEE, symObjAddr: 0xBB0, symBinAddr: 0x1000B85F0, symSize: 0x2C4 }
  - { offset: 0x2035B4, size: 0x8, addend: 0x0, symName: __ZN6fuzzer8RawPrintEPKc, symObjAddr: 0xE74, symBinAddr: 0x1000B88B4, symSize: 0x2C }
  - { offset: 0x2035BF, size: 0x8, addend: 0x0, symName: __ZN6fuzzer8RawPrintEPKc, symObjAddr: 0xE74, symBinAddr: 0x1000B88B4, symSize: 0x2C }
  - { offset: 0x203612, size: 0x8, addend: 0x0, symName: __ZN6fuzzer5MkDirERKNSt3__112basic_stringIcNS0_11char_traitsIcEENS0_9allocatorIcEEEE, symObjAddr: 0xEA0, symBinAddr: 0x1000B88E0, symSize: 0x18 }
  - { offset: 0x20363E, size: 0x8, addend: 0x0, symName: __ZN6fuzzer5MkDirERKNSt3__112basic_stringIcNS0_11char_traitsIcEENS0_9allocatorIcEEEE, symObjAddr: 0xEA0, symBinAddr: 0x1000B88E0, symSize: 0x18 }
  - { offset: 0x203659, size: 0x8, addend: 0x0, symName: __ZN6fuzzer5MkDirERKNSt3__112basic_stringIcNS0_11char_traitsIcEENS0_9allocatorIcEEEE, symObjAddr: 0xEA0, symBinAddr: 0x1000B88E0, symSize: 0x18 }
  - { offset: 0x203675, size: 0x8, addend: 0x0, symName: __ZN6fuzzer5MkDirERKNSt3__112basic_stringIcNS0_11char_traitsIcEENS0_9allocatorIcEEEE, symObjAddr: 0xEA0, symBinAddr: 0x1000B88E0, symSize: 0x18 }
  - { offset: 0x203691, size: 0x8, addend: 0x0, symName: __ZN6fuzzer5MkDirERKNSt3__112basic_stringIcNS0_11char_traitsIcEENS0_9allocatorIcEEEE, symObjAddr: 0xEA0, symBinAddr: 0x1000B88E0, symSize: 0x18 }
  - { offset: 0x2036C5, size: 0x8, addend: 0x0, symName: __ZN6fuzzer5RmDirERKNSt3__112basic_stringIcNS0_11char_traitsIcEENS0_9allocatorIcEEEE, symObjAddr: 0xEB8, symBinAddr: 0x1000B88F8, symSize: 0x14 }
  - { offset: 0x2036F1, size: 0x8, addend: 0x0, symName: __ZN6fuzzer5RmDirERKNSt3__112basic_stringIcNS0_11char_traitsIcEENS0_9allocatorIcEEEE, symObjAddr: 0xEB8, symBinAddr: 0x1000B88F8, symSize: 0x14 }
  - { offset: 0x20370C, size: 0x8, addend: 0x0, symName: __ZN6fuzzer5RmDirERKNSt3__112basic_stringIcNS0_11char_traitsIcEENS0_9allocatorIcEEEE, symObjAddr: 0xEB8, symBinAddr: 0x1000B88F8, symSize: 0x14 }
  - { offset: 0x203728, size: 0x8, addend: 0x0, symName: __ZN6fuzzer5RmDirERKNSt3__112basic_stringIcNS0_11char_traitsIcEENS0_9allocatorIcEEEE, symObjAddr: 0xEB8, symBinAddr: 0x1000B88F8, symSize: 0x14 }
  - { offset: 0x203744, size: 0x8, addend: 0x0, symName: __ZN6fuzzer5RmDirERKNSt3__112basic_stringIcNS0_11char_traitsIcEENS0_9allocatorIcEEEE, symObjAddr: 0xEB8, symBinAddr: 0x1000B88F8, symSize: 0x14 }
  - { offset: 0x208CBE, size: 0x8, addend: 0x0, symName: __ZN6fuzzer19IterateDirRecursiveERKNSt3__112basic_stringIcNS0_11char_traitsIcEENS0_9allocatorIcEEEEPFvS8_ESA_SA_, symObjAddr: 0x6E8, symBinAddr: 0x1000B8128, symSize: 0x258 }
  - { offset: 0x20AD9D, size: 0x8, addend: 0x0, symName: __ZN6fuzzer6Fuzzer10IsMyThreadE, symObjAddr: 0xAC14, symBinAddr: 0x1001496C0, symSize: 0x0 }
  - { offset: 0x20C712, size: 0x8, addend: 0x0, symName: __ZN6fuzzer19RunningUserCallbackE, symObjAddr: 0x130C7F, symBinAddr: 0x1001499B8, symSize: 0x0 }
  - { offset: 0x20C72C, size: 0x8, addend: 0x0, symName: __MergedGlobals, symObjAddr: 0x130C80, symBinAddr: 0x10017D5E8, symSize: 0x0 }
  - { offset: 0x20C7ED, size: 0x8, addend: 0x0, symName: __MergedGlobals, symObjAddr: 0x130C80, symBinAddr: 0x10017D5E8, symSize: 0x0 }
  - { offset: 0x20CE70, size: 0x8, addend: 0x0, symName: __ZN6fuzzer10MallocHookEPVKvm, symObjAddr: 0x28, symBinAddr: 0x1000B89B4, symSize: 0xE4 }
  - { offset: 0x20D0A3, size: 0x8, addend: 0x0, symName: __ZN6fuzzer8FreeHookEPVKv, symObjAddr: 0x18C, symBinAddr: 0x1000B8B18, symSize: 0xC4 }
  - { offset: 0x20D45A, size: 0x8, addend: 0x0, symName: __ZN6fuzzerL20RenameFeatureSetFileERKNSt3__112basic_stringIcNS0_11char_traitsIcEENS0_9allocatorIcEEEES8_S8_, symObjAddr: 0x2C50, symBinAddr: 0x1000BB5DC, symSize: 0xA0 }
  - { offset: 0x20D4A8, size: 0x8, addend: 0x0, symName: __ZN6fuzzerL20RenameFeatureSetFileERKNSt3__112basic_stringIcNS0_11char_traitsIcEENS0_9allocatorIcEEEES8_S8_, symObjAddr: 0x2C50, symBinAddr: 0x1000BB5DC, symSize: 0xA0 }
  - { offset: 0x20D4C4, size: 0x8, addend: 0x0, symName: __ZN6fuzzerL20RenameFeatureSetFileERKNSt3__112basic_stringIcNS0_11char_traitsIcEENS0_9allocatorIcEEEES8_S8_, symObjAddr: 0x2C50, symBinAddr: 0x1000BB5DC, symSize: 0xA0 }
  - { offset: 0x20D4E0, size: 0x8, addend: 0x0, symName: __ZN6fuzzerL20RenameFeatureSetFileERKNSt3__112basic_stringIcNS0_11char_traitsIcEENS0_9allocatorIcEEEES8_S8_, symObjAddr: 0x2C50, symBinAddr: 0x1000BB5DC, symSize: 0xA0 }
  - { offset: 0x20D862, size: 0x8, addend: 0x0, symName: '__ZN6fuzzer18ForEachNonZeroByteIZNKS_7TracePC15CollectFeaturesIZNS_6Fuzzer6RunOneEPKhmbPNS_9InputInfoEbPbE3$_0EEmT_EUlmmhE_EEmS5_S5_mSA_', symObjAddr: 0x7F40, symBinAddr: 0x1000C07EC, symSize: 0xAEC }
  - { offset: 0x20E78C, size: 0x8, addend: 0x0, symName: '__ZZN6fuzzer6Fuzzer6RunOneEPKhmbPNS_9InputInfoEbPbENK3$_0clEj', symObjAddr: 0x8A2C, symBinAddr: 0x1000C12D8, symSize: 0x114 }
  - { offset: 0x227D33, size: 0x8, addend: 0x0, symName: __ZNSt3__113__stable_sortINS_17_ClassicAlgPolicyERNS_6__lessIvvEENS_11__wrap_iterIPN6fuzzer9SizedFileEEEEEvT1_SA_T0_NS_15iterator_traitsISA_E15difference_typeEPNSD_10value_typeEl, symObjAddr: 0x997C, symBinAddr: 0x1000C2228, symSize: 0x2C0 }
  - { offset: 0x228752, size: 0x8, addend: 0x0, symName: __ZNSt3__124__buffered_inplace_mergeB8nn200100INS_17_ClassicAlgPolicyERNS_6__lessIvvEENS_11__wrap_iterIPN6fuzzer9SizedFileEEEEEvT1_SA_SA_OT0_NS_15iterator_traitsISA_E15difference_typeESF_PNSE_10value_typeE, symObjAddr: 0xA520, symBinAddr: 0x1000C2DCC, symSize: 0x174 }
  - { offset: 0x229C26, size: 0x8, addend: 0x0, symName: __ZNSt3__127__tree_balance_after_insertB8nn200100IPNS_16__tree_node_baseIPvEEEEvT_S5_, symObjAddr: 0x7D6C, symBinAddr: 0x1000C0618, symSize: 0x1D4 }
  - { offset: 0x22D707, size: 0x8, addend: 0x0, symName: __ZNSt3__115__inplace_mergeINS_17_ClassicAlgPolicyERNS_6__lessIvvEENS_11__wrap_iterIPN6fuzzer9SizedFileEEEEEvT1_SA_SA_OT0_NS_15iterator_traitsISA_E15difference_typeESF_PNSE_10value_typeEl, symObjAddr: 0xA07C, symBinAddr: 0x1000C2928, symSize: 0x2F0 }
  - { offset: 0x22E0AD, size: 0x8, addend: 0x0, symName: __ZNSt3__118__stable_sort_moveINS_17_ClassicAlgPolicyERNS_6__lessIvvEENS_11__wrap_iterIPN6fuzzer9SizedFileEEEEEvT1_SA_T0_NS_15iterator_traitsISA_E15difference_typeEPNSD_10value_typeE, symObjAddr: 0x9C3C, symBinAddr: 0x1000C24E8, symSize: 0x294 }
  - { offset: 0x22E99A, size: 0x8, addend: 0x0, symName: __ZNSt3__119__merge_move_assignB8nn200100INS_17_ClassicAlgPolicyERNS_6__lessIvvEEPN6fuzzer9SizedFileES7_NS_11__wrap_iterIS7_EEEEvT1_SA_T2_SB_T3_T0_, symObjAddr: 0x9ED0, symBinAddr: 0x1000C277C, symSize: 0x1AC }
  - { offset: 0x22F1B4, size: 0x8, addend: 0x0, symName: __ZNSt3__121__insertion_sort_moveB8nn200100INS_17_ClassicAlgPolicyERNS_6__lessIvvEENS_11__wrap_iterIPN6fuzzer9SizedFileEEEEEvT1_SA_PNS_15iterator_traitsISA_E10value_typeET0_, symObjAddr: 0xA36C, symBinAddr: 0x1000C2C18, symSize: 0x1B4 }
  - { offset: 0x22FD08, size: 0x8, addend: 0x0, symName: __ZNSt3__116__rotate_forwardB8nn200100INS_17_ClassicAlgPolicyENS_11__wrap_iterIPN6fuzzer9SizedFileEEEEET0_S7_S7_S7_, symObjAddr: 0xA94C, symBinAddr: 0x1000C31F8, symSize: 0x204 }
  - { offset: 0x2302B4, size: 0x8, addend: 0x0, symName: __ZNSt3__120__half_inplace_mergeB8nn200100INS_17_ClassicAlgPolicyENS_8__invertIRNS_6__lessIvvEEEENS_16reverse_iteratorIPN6fuzzer9SizedFileEEESB_NS7_INS_11__wrap_iterISA_EEEESE_SE_EEvT1_T2_T3_T4_T5_OT0_, symObjAddr: 0xA7D0, symBinAddr: 0x1000C307C, symSize: 0x17C }
  - { offset: 0x2308A2, size: 0x8, addend: 0x0, symName: __ZNSt3__120__half_inplace_mergeB8nn200100INS_17_ClassicAlgPolicyERNS_6__lessIvvEEPN6fuzzer9SizedFileES7_NS_11__wrap_iterIS7_EES9_S9_EEvT1_T2_T3_T4_T5_OT0_, symObjAddr: 0xA694, symBinAddr: 0x1000C2F40, symSize: 0x13C }
  - { offset: 0x232037, size: 0x8, addend: 0x0, symName: __ZNSt3__16vectorIhNS_9allocatorIhEEE18__assign_with_sizeB8nn200100IPhS5_EEvT_T0_l, symObjAddr: 0x5674, symBinAddr: 0x1000BDFD0, symSize: 0x13C }
  - { offset: 0x2332C7, size: 0x8, addend: 0x0, symName: __ZN6fuzzer6Fuzzer23CheckExitOnSrcPosOrItemEv, symObjAddr: 0x1410, symBinAddr: 0x1000B9D9C, symSize: 0x324 }
  - { offset: 0x2332EF, size: 0x8, addend: 0x0, symName: __MergedGlobals, symObjAddr: 0x130C80, symBinAddr: 0x10017D5E8, symSize: 0x0 }
  - { offset: 0x233CE8, size: 0x8, addend: 0x0, symName: __ZN6fuzzer6Fuzzer18RereadOutputCorpusEm, symObjAddr: 0x1734, symBinAddr: 0x1000BA0C0, symSize: 0x2D0 }
  - { offset: 0x234439, size: 0x8, addend: 0x0, symName: __ZNSt3__124uniform_int_distributionIlEclIN6fuzzer6RandomEEElRT_RKNS1_10param_typeE, symObjAddr: 0x95D4, symBinAddr: 0x1000C1E80, symSize: 0x1B4 }
  - { offset: 0x2344D9, size: 0x8, addend: 0x0, symName: __ZNSt3__124uniform_int_distributionIlEclIN6fuzzer6RandomEEElRT_RKNS1_10param_typeE, symObjAddr: 0x95D4, symBinAddr: 0x1000C1E80, symSize: 0x1B4 }
  - { offset: 0x2346C1, size: 0x8, addend: 0x0, symName: __ZN6fuzzer16MallocFreeTracerD1Ev, symObjAddr: 0x0, symBinAddr: 0x1000B898C, symSize: 0x28 }
  - { offset: 0x234879, size: 0x8, addend: 0x0, symName: __ZN6fuzzer6Fuzzer12HandleMallocEm, symObjAddr: 0x10C, symBinAddr: 0x1000B8A98, symSize: 0x80 }
  - { offset: 0x234922, size: 0x8, addend: 0x0, symName: __ZN6fuzzer8FreeHookEPVKv, symObjAddr: 0x18C, symBinAddr: 0x1000B8B18, symSize: 0xC4 }
  - { offset: 0x23492D, size: 0x8, addend: 0x0, symName: __ZN6fuzzer6Fuzzer15DumpCurrentUnitEPKc, symObjAddr: 0x250, symBinAddr: 0x1000B8BDC, symSize: 0x18C }
  - { offset: 0x235134, size: 0x8, addend: 0x0, symName: __ZN6fuzzer6Fuzzer15PrintFinalStatsEv, symObjAddr: 0x3DC, symBinAddr: 0x1000B8D68, symSize: 0x160 }
  - { offset: 0x23513F, size: 0x8, addend: 0x0, symName: __ZN6fuzzer6Fuzzer15PrintFinalStatsEv, symObjAddr: 0x3DC, symBinAddr: 0x1000B8D68, symSize: 0x160 }
  - { offset: 0x2357C8, size: 0x8, addend: 0x0, symName: __ZN6fuzzer6Fuzzer25WriteUnitToFileWithPrefixERKNSt3__16vectorIhNS1_9allocatorIhEEEEPKc, symObjAddr: 0x7D4, symBinAddr: 0x1000B9160, symSize: 0x294 }
  - { offset: 0x236394, size: 0x8, addend: 0x0, symName: __ZN6fuzzer6Fuzzer19StaticAlarmCallbackEv, symObjAddr: 0xA68, symBinAddr: 0x1000B93F4, symSize: 0xC }
  - { offset: 0x2363A9, size: 0x8, addend: 0x0, symName: __ZNSt3__16vectorIjNS_9allocatorIjEEE18__assign_with_sizeB8nn200100IPjS5_EEvT_T0_l, symObjAddr: 0x57C4, symBinAddr: 0x1000BE10C, symSize: 0x14C }
  - { offset: 0x236432, size: 0x8, addend: 0x0, symName: __ZN6fuzzer11InputCorpus10PrintStatsEv, symObjAddr: 0x12E8, symBinAddr: 0x1000B9C74, symSize: 0xC8 }
  - { offset: 0x236458, size: 0x8, addend: 0x0, symName: __ZN6fuzzer11InputCorpus10PrintStatsEv, symObjAddr: 0x12E8, symBinAddr: 0x1000B9C74, symSize: 0xC8 }
  - { offset: 0x236C49, size: 0x8, addend: 0x0, symName: __ZN6fuzzer6FuzzerC2EPFiPKhmERNS_11InputCorpusERNS_18MutationDispatcherERKNS_14FuzzingOptionsE, symObjAddr: 0x53C, symBinAddr: 0x1000B8EC8, symSize: 0x1F8 }
  - { offset: 0x23731B, size: 0x8, addend: 0x0, symName: __ZN6fuzzer14FuzzingOptionsC2ERKS0_, symObjAddr: 0x4714, symBinAddr: 0x1000BD0A0, symSize: 0x25C }
  - { offset: 0x237775, size: 0x8, addend: 0x0, symName: __ZN6fuzzer6Fuzzer19StaticDeathCallbackEv, symObjAddr: 0x734, symBinAddr: 0x1000B90C0, symSize: 0x34 }
  - { offset: 0x2377CC, size: 0x8, addend: 0x0, symName: __ZN6fuzzer6Fuzzer23AllocateCurrentUnitDataEv, symObjAddr: 0x768, symBinAddr: 0x1000B90F4, symSize: 0x3C }
  - { offset: 0x2377EE, size: 0x8, addend: 0x0, symName: __ZN6fuzzer6FuzzerC1EPFiPKhmERNS_11InputCorpusERNS_18MutationDispatcherERKNS_14FuzzingOptionsE, symObjAddr: 0x7A4, symBinAddr: 0x1000B9130, symSize: 0x4 }
  - { offset: 0x237854, size: 0x8, addend: 0x0, symName: __ZN6fuzzer6FuzzerC1EPFiPKhmERNS_11InputCorpusERNS_18MutationDispatcherERKNS_14FuzzingOptionsE, symObjAddr: 0x7A4, symBinAddr: 0x1000B9130, symSize: 0x4 }
  - { offset: 0x237883, size: 0x8, addend: 0x0, symName: __ZN6fuzzer6Fuzzer13DeathCallbackEv, symObjAddr: 0x7A8, symBinAddr: 0x1000B9134, symSize: 0x2C }
  - { offset: 0x237B4F, size: 0x8, addend: 0x0, symName: __ZN6fuzzer6Fuzzer19StaticAlarmCallbackEv, symObjAddr: 0xA68, symBinAddr: 0x1000B93F4, symSize: 0xC }
  - { offset: 0x237B74, size: 0x8, addend: 0x0, symName: __ZN6fuzzer6Fuzzer13AlarmCallbackEv, symObjAddr: 0xA74, symBinAddr: 0x1000B9400, symSize: 0x13C }
  - { offset: 0x237CC3, size: 0x8, addend: 0x0, symName: __ZN6fuzzer6Fuzzer25StaticCrashSignalCallbackEv, symObjAddr: 0xBB0, symBinAddr: 0x1000B953C, symSize: 0xC }
  - { offset: 0x237CE9, size: 0x8, addend: 0x0, symName: __ZN6fuzzer6Fuzzer25StaticCrashSignalCallbackEv, symObjAddr: 0xBB0, symBinAddr: 0x1000B953C, symSize: 0xC }
  - { offset: 0x237D0E, size: 0x8, addend: 0x0, symName: __ZN6fuzzer6Fuzzer13CrashCallbackEv, symObjAddr: 0xBBC, symBinAddr: 0x1000B9548, symSize: 0x90 }
  - { offset: 0x237DB4, size: 0x8, addend: 0x0, symName: __ZN6fuzzer6Fuzzer18StaticExitCallbackEv, symObjAddr: 0xC4C, symBinAddr: 0x1000B95D8, symSize: 0xC }
  - { offset: 0x237DBF, size: 0x8, addend: 0x0, symName: __ZN6fuzzer6Fuzzer18StaticExitCallbackEv, symObjAddr: 0xC4C, symBinAddr: 0x1000B95D8, symSize: 0xC }
  - { offset: 0x237DE4, size: 0x8, addend: 0x0, symName: __ZN6fuzzer6Fuzzer12ExitCallbackEv, symObjAddr: 0xC58, symBinAddr: 0x1000B95E4, symSize: 0x94 }
  - { offset: 0x237E7C, size: 0x8, addend: 0x0, symName: __ZN6fuzzer6Fuzzer23StaticInterruptCallbackEv, symObjAddr: 0xCEC, symBinAddr: 0x1000B9678, symSize: 0x14 }
  - { offset: 0x237E87, size: 0x8, addend: 0x0, symName: __ZN6fuzzer6Fuzzer23StaticInterruptCallbackEv, symObjAddr: 0xCEC, symBinAddr: 0x1000B9678, symSize: 0x14 }
  - { offset: 0x237EA1, size: 0x8, addend: 0x0, symName: __ZN6fuzzer6Fuzzer17InterruptCallbackEv, symObjAddr: 0xD00, symBinAddr: 0x1000B968C, symSize: 0x78 }
  - { offset: 0x237EAC, size: 0x8, addend: 0x0, symName: __ZN6fuzzer6Fuzzer17InterruptCallbackEv, symObjAddr: 0xD00, symBinAddr: 0x1000B968C, symSize: 0x78 }
  - { offset: 0x237F77, size: 0x8, addend: 0x0, symName: __ZN6fuzzer6Fuzzer26StaticGracefulExitCallbackEv, symObjAddr: 0xD78, symBinAddr: 0x1000B9704, symSize: 0x1C }
  - { offset: 0x237F82, size: 0x8, addend: 0x0, symName: __ZN6fuzzer6Fuzzer26StaticGracefulExitCallbackEv, symObjAddr: 0xD78, symBinAddr: 0x1000B9704, symSize: 0x1C }
  - { offset: 0x237FA7, size: 0x8, addend: 0x0, symName: __ZN6fuzzer6Fuzzer28StaticFileSizeExceedCallbackEv, symObjAddr: 0xD94, symBinAddr: 0x1000B9720, symSize: 0x28 }
  - { offset: 0x237FDC, size: 0x8, addend: 0x0, symName: __ZN6fuzzer6Fuzzer19MaybeExitGracefullyEv, symObjAddr: 0xDBC, symBinAddr: 0x1000B9748, symSize: 0x74 }
  - { offset: 0x237FFB, size: 0x8, addend: 0x0, symName: __ZN6fuzzer6Fuzzer19MaybeExitGracefullyEv, symObjAddr: 0xDBC, symBinAddr: 0x1000B9748, symSize: 0x74 }
  - { offset: 0x238066, size: 0x8, addend: 0x0, symName: __ZN6fuzzer6Fuzzer17InterruptExitCodeEv, symObjAddr: 0xE30, symBinAddr: 0x1000B97BC, symSize: 0x10 }
  - { offset: 0x238077, size: 0x8, addend: 0x0, symName: __ZN6fuzzer6Fuzzer17InterruptExitCodeEv, symObjAddr: 0xE30, symBinAddr: 0x1000B97BC, symSize: 0x10 }
  - { offset: 0x23808E, size: 0x8, addend: 0x0, symName: __ZN6fuzzer6Fuzzer16RssLimitCallbackEv, symObjAddr: 0xE40, symBinAddr: 0x1000B97CC, symSize: 0xA0 }
  - { offset: 0x238143, size: 0x8, addend: 0x0, symName: __ZN6fuzzer6Fuzzer10PrintStatsEPKcS2_mm, symObjAddr: 0xEE0, symBinAddr: 0x1000B986C, symSize: 0x408 }
  - { offset: 0x2382FF, size: 0x8, addend: 0x0, symName: __ZN6fuzzer6Fuzzer10PrintStatsEPKcS2_mm, symObjAddr: 0xEE0, symBinAddr: 0x1000B986C, symSize: 0x408 }
  - { offset: 0x23878D, size: 0x8, addend: 0x0, symName: __ZN6fuzzer6Fuzzer14SetMaxInputLenEm, symObjAddr: 0x13B0, symBinAddr: 0x1000B9D3C, symSize: 0x58 }
  - { offset: 0x2387E5, size: 0x8, addend: 0x0, symName: __ZN6fuzzer6Fuzzer17SetMaxMutationLenEm, symObjAddr: 0x1408, symBinAddr: 0x1000B9D94, symSize: 0x8 }
  - { offset: 0x238DCA, size: 0x8, addend: 0x0, symName: __ZNKSt3__112__hash_tableINS_12basic_stringIcNS_11char_traitsIcEENS_9allocatorIcEEEENS_4hashIS6_EENS_8equal_toIS6_EENS4_IS6_EEE4findIS6_EENS_21__hash_const_iteratorIPNS_11__hash_nodeIS6_PvEEEERKT_, symObjAddr: 0x4970, symBinAddr: 0x1000BD2FC, symSize: 0x1C8 }
  - { offset: 0x239565, size: 0x8, addend: 0x0, symName: __ZN6fuzzer6Fuzzer18RereadOutputCorpusEm, symObjAddr: 0x1734, symBinAddr: 0x1000BA0C0, symSize: 0x2D0 }
  - { offset: 0x2395D1, size: 0x8, addend: 0x0, symName: __ZN6fuzzer6Fuzzer18RereadOutputCorpusEm, symObjAddr: 0x1734, symBinAddr: 0x1000BA0C0, symSize: 0x2D0 }
  - { offset: 0x2395F0, size: 0x8, addend: 0x0, symName: __ZN6fuzzer6Fuzzer18RereadOutputCorpusEm, symObjAddr: 0x1734, symBinAddr: 0x1000BA0C0, symSize: 0x2D0 }
  - { offset: 0x23960F, size: 0x8, addend: 0x0, symName: __ZN6fuzzer6Fuzzer18RereadOutputCorpusEm, symObjAddr: 0x1734, symBinAddr: 0x1000BA0C0, symSize: 0x2D0 }
  - { offset: 0x23A109, size: 0x8, addend: 0x0, symName: __ZN6fuzzer6Fuzzer6RunOneEPKhmbPNS_9InputInfoEbPb, symObjAddr: 0x1A04, symBinAddr: 0x1000BA390, symSize: 0x510 }
  - { offset: 0x23B7B8, size: 0x8, addend: 0x0, symName: __ZN6fuzzer6Fuzzer28PrintPulseAndReportSlowInputEPKhm, symObjAddr: 0x1F14, symBinAddr: 0x1000BA8A0, symSize: 0x1AC }
  - { offset: 0x23BA44, size: 0x8, addend: 0x0, symName: __ZN6fuzzer6Fuzzer15ExecuteCallbackEPKhm, symObjAddr: 0x2180, symBinAddr: 0x1000BAB0C, symSize: 0x280 }
  - { offset: 0x23C22A, size: 0x8, addend: 0x0, symName: '__ZNK6fuzzer7TracePC15CollectFeaturesIZNS_6Fuzzer6RunOneEPKhmbPNS_9InputInfoEbPbE3$_0EEmT_', symObjAddr: 0x2400, symBinAddr: 0x1000BAD8C, symSize: 0x554 }
  - { offset: 0x23C23B, size: 0x8, addend: 0x0, symName: '__ZNK6fuzzer7TracePC15CollectFeaturesIZNS_6Fuzzer6RunOneEPKhmbPNS_9InputInfoEbPbE3$_0EEmT_', symObjAddr: 0x2400, symBinAddr: 0x1000BAD8C, symSize: 0x554 }
  - { offset: 0x23D142, size: 0x8, addend: 0x0, symName: __ZN6fuzzer11InputCorpus11AddToCorpusERKNSt3__16vectorIhNS1_9allocatorIhEEEEmbbbNS1_6chrono8durationIxNS1_5ratioILl1ELl1000000EEEEERKNS2_IjNS3_IjEEEERKNS_13DataFlowTraceEPKNS_9InputInfoE, symObjAddr: 0x2954, symBinAddr: 0x1000BB2E0, symSize: 0x204 }
  - { offset: 0x23D197, size: 0x8, addend: 0x0, symName: __ZN6fuzzer6Fuzzer28PrintPulseAndReportSlowInputEPKhm, symObjAddr: 0x1F14, symBinAddr: 0x1000BA8A0, symSize: 0x1AC }
  - { offset: 0x23D765, size: 0x8, addend: 0x0, symName: __ZNSt3__16vectorIhNS_9allocatorIhEEEC1B8nn200100IPKhTnNS_9enable_ifIXaasr31__has_forward_iterator_categoryIT_EE5valuesr16is_constructibleIhNS_15iterator_traitsIS8_E9referenceEEE5valueEiE4typeELi0EEES8_S8_, symObjAddr: 0x20C0, symBinAddr: 0x1000BAA4C, symSize: 0xC0 }
  - { offset: 0x23D770, size: 0x8, addend: 0x0, symName: __ZNSt3__16vectorIhNS_9allocatorIhEEEC1B8nn200100IPKhTnNS_9enable_ifIXaasr31__has_forward_iterator_categoryIT_EE5valuesr16is_constructibleIhNS_15iterator_traitsIS8_E9referenceEEE5valueEiE4typeELi0EEES8_S8_, symObjAddr: 0x20C0, symBinAddr: 0x1000BAA4C, symSize: 0xC0 }
  - { offset: 0x23DA4E, size: 0x8, addend: 0x0, symName: __ZN6fuzzer6Fuzzer15ExecuteCallbackEPKhm, symObjAddr: 0x2180, symBinAddr: 0x1000BAB0C, symSize: 0x280 }
  - { offset: 0x23DA59, size: 0x8, addend: 0x0, symName: __ZN6fuzzer11InputCorpus7ReplaceEPNS_9InputInfoERKNSt3__16vectorIhNS3_9allocatorIhEEEENS3_6chrono8durationIxNS3_5ratioILl1ELl1000000EEEEE, symObjAddr: 0x2B58, symBinAddr: 0x1000BB4E4, symSize: 0xF8 }
  - { offset: 0x23DF03, size: 0x8, addend: 0x0, symName: __ZN6fuzzer11InputCorpus11AddToCorpusERKNSt3__16vectorIhNS1_9allocatorIhEEEEmbbbNS1_6chrono8durationIxNS1_5ratioILl1ELl1000000EEEEERKNS2_IjNS3_IjEEEERKNS_13DataFlowTraceEPKNS_9InputInfoE, symObjAddr: 0x2954, symBinAddr: 0x1000BB2E0, symSize: 0x204 }
  - { offset: 0x23EFDA, size: 0x8, addend: 0x0, symName: __ZN6fuzzer11InputCorpus10DeleteFileERKNS_9InputInfoE, symObjAddr: 0x60BC, symBinAddr: 0x1000BEA04, symSize: 0xBC }
  - { offset: 0x23F2B8, size: 0x8, addend: 0x0, symName: __ZN6fuzzer11InputCorpus14AddRareFeatureEj, symObjAddr: 0x8E7C, symBinAddr: 0x1000C1728, symSize: 0x450 }
  - { offset: 0x23FD18, size: 0x8, addend: 0x0, symName: __ZNSt3__16vectorINS_4pairIjtEENS_9allocatorIS2_EEE6insertENS_11__wrap_iterIPKS2_EEOS2_, symObjAddr: 0x93C4, symBinAddr: 0x1000C1C70, symSize: 0x1FC }
  - { offset: 0x240551, size: 0x8, addend: 0x0, symName: __ZNSt3__16vectorINS_4pairIjtEENS_9allocatorIS2_EEE20__throw_length_errorB8nn200100Ev, symObjAddr: 0x95C0, symBinAddr: 0x1000C1E6C, symSize: 0x14 }
  - { offset: 0x24055C, size: 0x8, addend: 0x0, symName: __ZNSt3__16vectorINS_4pairIjtEENS_9allocatorIS2_EEE9push_backB8nn200100EOS2_, symObjAddr: 0x92CC, symBinAddr: 0x1000C1B78, symSize: 0xF8 }
  - { offset: 0x2409A0, size: 0x8, addend: 0x0, symName: __ZNSt3__16vectorINS_4pairIjtEENS_9allocatorIS2_EEE6insertENS_11__wrap_iterIPKS2_EEOS2_, symObjAddr: 0x93C4, symBinAddr: 0x1000C1C70, symSize: 0x1FC }
  - { offset: 0x2409AB, size: 0x8, addend: 0x0, symName: '__ZZN6fuzzer6Fuzzer6RunOneEPKhmbPNS_9InputInfoEbPbENK3$_0clEj', symObjAddr: 0x8A2C, symBinAddr: 0x1000C12D8, symSize: 0x114 }
  - { offset: 0x240CC8, size: 0x8, addend: 0x0, symName: __ZNSt3__16vectorIjNS_9allocatorIjEEE20__throw_length_errorB8nn200100Ev, symObjAddr: 0x5910, symBinAddr: 0x1000BE258, symSize: 0x14 }
  - { offset: 0x240CE0, size: 0x8, addend: 0x0, symName: __ZNSt3__112__hash_tableINS_12basic_stringIcNS_11char_traitsIcEENS_9allocatorIcEEEENS_4hashIS6_EENS_8equal_toIS6_EENS4_IS6_EEE25__emplace_unique_key_argsIS6_JRKS6_EEENS_4pairINS_15__hash_iteratorIPNS_11__hash_nodeIS6_PvEEEEbEERKT_DpOT0_, symObjAddr: 0x5924, symBinAddr: 0x1000BE26C, symSize: 0x404 }
  - { offset: 0x240F00, size: 0x8, addend: 0x0, symName: __ZNSt3__16vectorIPN6fuzzer9InputInfoENS_9allocatorIS3_EEE9push_backB8nn200100EOS3_, symObjAddr: 0x5538, symBinAddr: 0x1000BDEC4, symSize: 0xF8 }
  - { offset: 0x241344, size: 0x8, addend: 0x0, symName: __ZNSt3__16vectorIPN6fuzzer9InputInfoENS_9allocatorIS3_EEE20__throw_length_errorB8nn200100Ev, symObjAddr: 0x5630, symBinAddr: 0x1000BDFBC, symSize: 0x14 }
  - { offset: 0x24134F, size: 0x8, addend: 0x0, symName: __ZNSt3__16vectorIhNS_9allocatorIhEEE18__assign_with_sizeB8nn200100IPhS5_EEvT_T0_l, symObjAddr: 0x5674, symBinAddr: 0x1000BDFD0, symSize: 0x13C }
  - { offset: 0x241D6F, size: 0x8, addend: 0x0, symName: __ZNSt3__16vectorIjNS_9allocatorIjEEE18__assign_with_sizeB8nn200100IPjS5_EEvT_T0_l, symObjAddr: 0x57C4, symBinAddr: 0x1000BE10C, symSize: 0x14C }
  - { offset: 0x2427AE, size: 0x8, addend: 0x0, symName: __ZNSt3__16vectorIjNS_9allocatorIjEEE20__throw_length_errorB8nn200100Ev, symObjAddr: 0x5910, symBinAddr: 0x1000BE258, symSize: 0x14 }
  - { offset: 0x2427D1, size: 0x8, addend: 0x0, symName: __ZNSt3__112__hash_tableINS_12basic_stringIcNS_11char_traitsIcEENS_9allocatorIcEEEENS_4hashIS6_EENS_8equal_toIS6_EENS4_IS6_EEE25__emplace_unique_key_argsIS6_JRKS6_EEENS_4pairINS_15__hash_iteratorIPNS_11__hash_nodeIS6_PvEEEEbEERKT_DpOT0_, symObjAddr: 0x5924, symBinAddr: 0x1000BE26C, symSize: 0x404 }
  - { offset: 0x242F80, size: 0x8, addend: 0x0, symName: __ZNKSt3__112__hash_tableINS_17__hash_value_typeINS_12basic_stringIcNS_11char_traitsIcEENS_9allocatorIcEEEENS_6vectorIhNS5_IhEEEEEENS_22__unordered_map_hasherIS7_SB_NS_4hashIS7_EENS_8equal_toIS7_EELb1EEENS_21__unordered_map_equalIS7_SB_SG_SE_Lb1EEENS5_ISB_EEE4findIS7_EENS_21__hash_const_iteratorIPNS_11__hash_nodeISB_PvEEEERKT_, symObjAddr: 0x5EF4, symBinAddr: 0x1000BE83C, symSize: 0x1C8 }
  - { offset: 0x2433C2, size: 0x8, addend: 0x0, symName: __ZNSt3__112__hash_tableINS_12basic_stringIcNS_11char_traitsIcEENS_9allocatorIcEEEENS_4hashIS6_EENS_8equal_toIS6_EENS4_IS6_EEE4findIS6_EENS_15__hash_iteratorIPNS_11__hash_nodeIS6_PvEEEERKT_, symObjAddr: 0x6178, symBinAddr: 0x1000BEAC0, symSize: 0x1C8 }
  - { offset: 0x24371F, size: 0x8, addend: 0x0, symName: __ZNSt3__112__hash_tableINS_12basic_stringIcNS_11char_traitsIcEENS_9allocatorIcEEEENS_4hashIS6_EENS_8equal_toIS6_EENS4_IS6_EEE5eraseENS_21__hash_const_iteratorIPNS_11__hash_nodeIS6_PvEEEE, symObjAddr: 0x6340, symBinAddr: 0x1000BEC88, symSize: 0x168 }
  - { offset: 0x243B9A, size: 0x8, addend: 0x0, symName: __ZNSt3__112__hash_tableINS_12basic_stringIcNS_11char_traitsIcEENS_9allocatorIcEEEENS_4hashIS6_EENS_8equal_toIS6_EENS4_IS6_EEE25__emplace_unique_key_argsIS6_JS6_EEENS_4pairINS_15__hash_iteratorIPNS_11__hash_nodeIS6_PvEEEEbEERKT_DpOT0_, symObjAddr: 0x64A8, symBinAddr: 0x1000BEDF0, symSize: 0x3E0 }
  - { offset: 0x24432A, size: 0x8, addend: 0x0, symName: __ZN6fuzzer6Fuzzer20TPCUpdateObservedPCsEv, symObjAddr: 0x2CF0, symBinAddr: 0x1000BB67C, symSize: 0xC }
  - { offset: 0x244354, size: 0x8, addend: 0x0, symName: __ZNK6fuzzer6Fuzzer28GetCurrentUnitInFuzzingTheadEPPKh, symObjAddr: 0x2CFC, symBinAddr: 0x1000BB688, symSize: 0x10 }
  - { offset: 0x2443F0, size: 0x8, addend: 0x0, symName: __ZN6fuzzer6Fuzzer22CrashOnOverwrittenDataEv, symObjAddr: 0x2D0C, symBinAddr: 0x1000BB698, symSize: 0x58 }
  - { offset: 0x244475, size: 0x8, addend: 0x0, symName: __ZN6fuzzer6Fuzzer19WriteToOutputCorpusERKNSt3__16vectorIhNS1_9allocatorIhEEEE, symObjAddr: 0x2D64, symBinAddr: 0x1000BB6F0, symSize: 0x190 }
  - { offset: 0x24454B, size: 0x8, addend: 0x0, symName: __ZN6fuzzer6Fuzzer19WriteToOutputCorpusERKNSt3__16vectorIhNS1_9allocatorIhEEEE, symObjAddr: 0x2D64, symBinAddr: 0x1000BB6F0, symSize: 0x190 }
  - { offset: 0x244A4F, size: 0x8, addend: 0x0, symName: __ZN6fuzzer6Fuzzer21PrintStatusForNewUnitERKNSt3__16vectorIhNS1_9allocatorIhEEEEPKc, symObjAddr: 0x2EF4, symBinAddr: 0x1000BB880, symSize: 0x184 }
  - { offset: 0x244AAA, size: 0x8, addend: 0x0, symName: __ZN6fuzzer6Fuzzer21PrintStatusForNewUnitERKNSt3__16vectorIhNS1_9allocatorIhEEEEPKc, symObjAddr: 0x2EF4, symBinAddr: 0x1000BB880, symSize: 0x184 }
  - { offset: 0x244BEC, size: 0x8, addend: 0x0, symName: __ZN6fuzzer6Fuzzer17ReportNewCoverageEPNS_9InputInfoERKNSt3__16vectorIhNS3_9allocatorIhEEEE, symObjAddr: 0x3078, symBinAddr: 0x1000BBA04, symSize: 0x1F4 }
  - { offset: 0x244EA0, size: 0x8, addend: 0x0, symName: __ZN6fuzzer6Fuzzer23TryDetectingAMemoryLeakEPKhmb, symObjAddr: 0x326C, symBinAddr: 0x1000BBBF8, symSize: 0x130 }
  - { offset: 0x244FF4, size: 0x8, addend: 0x0, symName: __ZN6fuzzer6Fuzzer16MutateAndTestOneEv, symObjAddr: 0x339C, symBinAddr: 0x1000BBD28, symSize: 0x2B0 }
  - { offset: 0x245195, size: 0x8, addend: 0x0, symName: __ZN6fuzzer6Fuzzer16MutateAndTestOneEv, symObjAddr: 0x339C, symBinAddr: 0x1000BBD28, symSize: 0x2B0 }
  - { offset: 0x245AC1, size: 0x8, addend: 0x0, symName: __ZN6fuzzer6Fuzzer14PurgeAllocatorEv, symObjAddr: 0x364C, symBinAddr: 0x1000BBFD8, symSize: 0x9C }
  - { offset: 0x245ACC, size: 0x8, addend: 0x0, symName: __ZN6fuzzer11InputCorpus21ChooseUnitIdxToMutateERNS_6RandomE, symObjAddr: 0x6888, symBinAddr: 0x1000BF1D0, symSize: 0x120 }
  - { offset: 0x245F59, size: 0x8, addend: 0x0, symName: __ZN6fuzzer6Fuzzer14PurgeAllocatorEv, symObjAddr: 0x364C, symBinAddr: 0x1000BBFD8, symSize: 0x9C }
  - { offset: 0x246603, size: 0x8, addend: 0x0, symName: __ZN6fuzzer6Fuzzer25ReadAndExecuteSeedCorporaERNSt3__16vectorINS_9SizedFileENS1_9allocatorIS3_EEEE, symObjAddr: 0x36E8, symBinAddr: 0x1000BC074, symSize: 0x80C }
  - { offset: 0x248297, size: 0x8, addend: 0x0, symName: __ZN6fuzzer6Fuzzer4LoopERNSt3__16vectorINS_9SizedFileENS1_9allocatorIS3_EEEE, symObjAddr: 0x3EF4, symBinAddr: 0x1000BC880, symSize: 0x490 }
  - { offset: 0x24904B, size: 0x8, addend: 0x0, symName: __ZNSt3__127__tree_balance_after_insertB8nn200100IPNS_16__tree_node_baseIPvEEEEvT_S5_, symObjAddr: 0x7D6C, symBinAddr: 0x1000C0618, symSize: 0x1D4 }
  - { offset: 0x2490E1, size: 0x8, addend: 0x0, symName: __ZN6fuzzer6Fuzzer17MinimizeCrashLoopERKNSt3__16vectorIhNS1_9allocatorIhEEEE, symObjAddr: 0x4384, symBinAddr: 0x1000BCD10, symSize: 0x374 }
  - { offset: 0x249976, size: 0x8, addend: 0x0, symName: _LLVMFuzzerMutate, symObjAddr: 0x46F8, symBinAddr: 0x1000BD084, symSize: 0x1C }
  - { offset: 0x249997, size: 0x8, addend: 0x0, symName: _LLVMFuzzerMutate, symObjAddr: 0x46F8, symBinAddr: 0x1000BD084, symSize: 0x1C }
  - { offset: 0x249AD1, size: 0x8, addend: 0x0, symName: __ZNKSt3__121__murmur2_or_cityhashImLm64EEclB8nn200100EPKvm, symObjAddr: 0x4B38, symBinAddr: 0x1000BD4C4, symSize: 0x66C }
  - { offset: 0x24AA76, size: 0x8, addend: 0x0, symName: __ZNSt3__121__murmur2_or_cityhashImLm64EE18__hash_len_0_to_16B8nn200100EPKcm, symObjAddr: 0x51A4, symBinAddr: 0x1000BDB30, symSize: 0x198 }
  - { offset: 0x24AD1A, size: 0x8, addend: 0x0, symName: __ZNSt3__121__murmur2_or_cityhashImLm64EE19__hash_len_33_to_64B8nn200100EPKcm, symObjAddr: 0x533C, symBinAddr: 0x1000BDCC8, symSize: 0x1FC }
  - { offset: 0x24B506, size: 0x8, addend: 0x0, symName: __ZNSt3__16vectorIPN6fuzzer9InputInfoENS_9allocatorIS3_EEE20__throw_length_errorB8nn200100Ev, symObjAddr: 0x5630, symBinAddr: 0x1000BDFBC, symSize: 0x14 }
  - { offset: 0x24B869, size: 0x8, addend: 0x0, symName: __ZNSt3__112__hash_tableINS_12basic_stringIcNS_11char_traitsIcEENS_9allocatorIcEEEENS_4hashIS6_EENS_8equal_toIS6_EENS4_IS6_EEE11__do_rehashILb1EEEvm, symObjAddr: 0x5D28, symBinAddr: 0x1000BE670, symSize: 0x1CC }
  - { offset: 0x24BC46, size: 0x8, addend: 0x0, symName: __ZNKSt3__112__hash_tableINS_17__hash_value_typeINS_12basic_stringIcNS_11char_traitsIcEENS_9allocatorIcEEEENS_6vectorIhNS5_IhEEEEEENS_22__unordered_map_hasherIS7_SB_NS_4hashIS7_EENS_8equal_toIS7_EELb1EEENS_21__unordered_map_equalIS7_SB_SG_SE_Lb1EEENS5_ISB_EEE4findIS7_EENS_21__hash_const_iteratorIPNS_11__hash_nodeISB_PvEEEERKT_, symObjAddr: 0x5EF4, symBinAddr: 0x1000BE83C, symSize: 0x1C8 }
  - { offset: 0x24C24A, size: 0x8, addend: 0x0, symName: __ZN6fuzzer11InputCorpus24UpdateCorpusDistributionERNS_6RandomE, symObjAddr: 0x69A8, symBinAddr: 0x1000BF2F0, symSize: 0x608 }
  - { offset: 0x24CFDF, size: 0x8, addend: 0x0, symName: __ZNSt3__16vectorIdNS_9allocatorIdEEE8__appendEm, symObjAddr: 0x7128, symBinAddr: 0x1000BFA70, symSize: 0x1A4 }
  - { offset: 0x24D468, size: 0x8, addend: 0x0, symName: __ZNSt3__16vectorIdNS_9allocatorIdEEE20__throw_length_errorB8nn200100Ev, symObjAddr: 0x72CC, symBinAddr: 0x1000BFC14, symSize: 0x14 }
  - { offset: 0x24D473, size: 0x8, addend: 0x0, symName: __ZN6fuzzer9InputInfo12UpdateEnergyEmbNSt3__16chrono8durationIxNS1_5ratioILl1ELl1000000EEEEE, symObjAddr: 0x6FB0, symBinAddr: 0x1000BF8F8, symSize: 0x178 }
  - { offset: 0x24D604, size: 0x8, addend: 0x0, symName: __ZNSt3__131piecewise_constant_distributionIdE10param_typeC2INS_11__wrap_iterIPdEES6_EET_S7_T0_, symObjAddr: 0x72E0, symBinAddr: 0x1000BFC28, symSize: 0x18C }
  - { offset: 0x24DDE3, size: 0x8, addend: 0x0, symName: __ZNSt3__16vectorIdNS_9allocatorIdEEE6assignEmRKd, symObjAddr: 0x746C, symBinAddr: 0x1000BFDB4, symSize: 0x1E8 }
  - { offset: 0x24DE00, size: 0x8, addend: 0x0, symName: __ZNSt3__131piecewise_constant_distributionIdE10param_typeaSERKS2_, symObjAddr: 0x79B4, symBinAddr: 0x1000C02FC, symSize: 0x1D0 }
  - { offset: 0x24E9DE, size: 0x8, addend: 0x0, symName: __ZNSt3__16vectorIdNS_9allocatorIdEEE18__assign_with_sizeB8nn200100IPdS5_EEvT_T0_l, symObjAddr: 0x7B84, symBinAddr: 0x1000C04CC, symSize: 0x14C }
  - { offset: 0x24ED5A, size: 0x8, addend: 0x0, symName: __ZNSt3__16vectorIdNS_9allocatorIdEEE20__throw_length_errorB8nn200100Ev, symObjAddr: 0x72CC, symBinAddr: 0x1000BFC14, symSize: 0x14 }
  - { offset: 0x24ED72, size: 0x8, addend: 0x0, symName: __ZNSt3__131piecewise_constant_distributionIdE10param_typeC2INS_11__wrap_iterIPdEES6_EET_S7_T0_, symObjAddr: 0x72E0, symBinAddr: 0x1000BFC28, symSize: 0x18C }
  - { offset: 0x24EFE9, size: 0x8, addend: 0x0, symName: __ZNSt3__16vectorIdNS_9allocatorIdEEE6assignEmRKd, symObjAddr: 0x746C, symBinAddr: 0x1000BFDB4, symSize: 0x1E8 }
  - { offset: 0x24F4E5, size: 0x8, addend: 0x0, symName: __ZNSt3__16vectorIdNS_9allocatorIdEEE9push_backB8nn200100ERKd, symObjAddr: 0x7654, symBinAddr: 0x1000BFF9C, symSize: 0xF8 }
  - { offset: 0x24F4F0, size: 0x8, addend: 0x0, symName: __ZNSt3__16vectorIdNS_9allocatorIdEEE9push_backB8nn200100ERKd, symObjAddr: 0x7654, symBinAddr: 0x1000BFF9C, symSize: 0xF8 }
  - { offset: 0x24F934, size: 0x8, addend: 0x0, symName: __ZNSt3__131piecewise_constant_distributionIdE10param_type6__initEv, symObjAddr: 0x774C, symBinAddr: 0x1000C0094, symSize: 0x268 }
  - { offset: 0x24F93F, size: 0x8, addend: 0x0, symName: __ZNSt3__131piecewise_constant_distributionIdE10param_type6__initEv, symObjAddr: 0x774C, symBinAddr: 0x1000C0094, symSize: 0x268 }
  - { offset: 0x24FDBC, size: 0x8, addend: 0x0, symName: __ZNSt3__16vectorIdNS_9allocatorIdEEE18__assign_with_sizeB8nn200100IPdS5_EEvT_T0_l, symObjAddr: 0x7B84, symBinAddr: 0x1000C04CC, symSize: 0x14C }
  - { offset: 0x250900, size: 0x8, addend: 0x0, symName: __ZN6fuzzer11InputCorpus10AddFeatureEmjb, symObjAddr: 0x8B40, symBinAddr: 0x1000C13EC, symSize: 0x120 }
  - { offset: 0x250B79, size: 0x8, addend: 0x0, symName: __ZNSt3__16vectorIjNS_9allocatorIjEEE9push_backB8nn200100ERKj, symObjAddr: 0x8C60, symBinAddr: 0x1000C150C, symSize: 0xF8 }
  - { offset: 0x250FB1, size: 0x8, addend: 0x0, symName: __ZN6fuzzer11InputCorpus22UpdateFeatureFrequencyEPNS_9InputInfoEm, symObjAddr: 0x8D58, symBinAddr: 0x1000C1604, symSize: 0x124 }
  - { offset: 0x250FBC, size: 0x8, addend: 0x0, symName: __ZN6fuzzer11InputCorpus22UpdateFeatureFrequencyEPNS_9InputInfoEm, symObjAddr: 0x8D58, symBinAddr: 0x1000C1604, symSize: 0x124 }
  - { offset: 0x251872, size: 0x8, addend: 0x0, symName: __ZNSt3__16vectorINS_4pairIjtEENS_9allocatorIS2_EEE20__throw_length_errorB8nn200100Ev, symObjAddr: 0x95C0, symBinAddr: 0x1000C1E6C, symSize: 0x14 }
  - { offset: 0x25188A, size: 0x8, addend: 0x0, symName: __ZNSt3__124uniform_int_distributionIlEclIN6fuzzer6RandomEEElRT_RKNS1_10param_typeE, symObjAddr: 0x95D4, symBinAddr: 0x1000C1E80, symSize: 0x1B4 }
  - { offset: 0x251B12, size: 0x8, addend: 0x0, symName: __ZNSt3__125__independent_bits_engineIN6fuzzer6RandomEmE6__evalENS_17integral_constantIbLb1EEE, symObjAddr: 0x9788, symBinAddr: 0x1000C2034, symSize: 0x1F4 }
  - { offset: 0x252191, size: 0x8, addend: 0x0, symName: __GLOBAL__sub_I_FuzzerLoop.cpp, symObjAddr: 0xABD0, symBinAddr: 0x1000C341C, symSize: 0x44 }
  - { offset: 0x25408E, size: 0x8, addend: 0x0, symName: __ZN6fuzzer6Merger5ParseERKNSt3__112basic_stringIcNS1_11char_traitsIcEENS1_9allocatorIcEEEEb, symObjAddr: 0x0, symBinAddr: 0x1000C3460, symSize: 0x188 }
  - { offset: 0x265C80, size: 0x8, addend: 0x0, symName: '__ZNSt3__111__introsortINS_17_ClassicAlgPolicyERZN6fuzzer6Merger5MergeERKNS_3setIjNS_4lessIjEENS_9allocatorIjEEEEPS9_SB_SC_PNS_6vectorINS_12basic_stringIcNS_11char_traitsIcEENS7_IcEEEENS7_ISI_EEEEE3$_0PNS2_13MergeFileInfoELb0EEEvT1_SQ_T0_NS_15iterator_traitsISQ_E15difference_typeEb', symObjAddr: 0x98A4, symBinAddr: 0x1000CA3B8, symSize: 0x1454 }
  - { offset: 0x26B1F4, size: 0x8, addend: 0x0, symName: '__ZNSt3__127__insertion_sort_incompleteB8nn200100INS_17_ClassicAlgPolicyERZN6fuzzer6Merger5MergeERKNS_3setIjNS_4lessIjEENS_9allocatorIjEEEEPS9_SB_SC_PNS_6vectorINS_12basic_stringIcNS_11char_traitsIcEENS7_IcEEEENS7_ISI_EEEEE3$_0PNS2_13MergeFileInfoEEEbT1_SQ_T0_', symObjAddr: 0xB074, symBinAddr: 0x1000CBB88, symSize: 0x364 }
  - { offset: 0x27A4E9, size: 0x8, addend: 0x0, symName: __ZNSt3__113__tree_removeB8nn200100IPNS_16__tree_node_baseIPvEEEEvT_S5_, symObjAddr: 0xCFA8, symBinAddr: 0x1000CD944, symSize: 0x420 }
  - { offset: 0x27BD9C, size: 0x8, addend: 0x0, symName: __ZNSt3__134__uninitialized_allocator_relocateB8nn200100INS_9allocatorIN6fuzzer13MergeFileInfoEEEPS3_EEvRT_T0_S8_S8_, symObjAddr: 0x90A8, symBinAddr: 0x1000CA21C, symSize: 0xF8 }
  - { offset: 0x27BDF7, size: 0x8, addend: 0x0, symName: __ZNSt3__134__uninitialized_allocator_relocateB8nn200100INS_9allocatorIN6fuzzer13MergeFileInfoEEEPS3_EEvRT_T0_S8_S8_, symObjAddr: 0x90A8, symBinAddr: 0x1000CA21C, symSize: 0xF8 }
  - { offset: 0x27D0F8, size: 0x8, addend: 0x0, symName: '__ZNSt3__17__sort3B8nn200100INS_17_ClassicAlgPolicyERZN6fuzzer6Merger5MergeERKNS_3setIjNS_4lessIjEENS_9allocatorIjEEEEPS9_SB_SC_PNS_6vectorINS_12basic_stringIcNS_11char_traitsIcEENS7_IcEEEENS7_ISI_EEEEE3$_0PNS2_13MergeFileInfoETnNS_9enable_ifIXnt21__use_branchless_sortIT0_T1_EEiE4typeELi0EEEbSS_SS_SS_SR_', symObjAddr: 0xACF8, symBinAddr: 0x1000CB80C, symSize: 0x150 }
  - { offset: 0x27D4D3, size: 0x8, addend: 0x0, symName: __ZNSt3__14swapB8nn200100IN6fuzzer13MergeFileInfoEEENS_9enable_ifIXaasr21is_move_constructibleIT_EE5valuesr18is_move_assignableIS4_EE5valueEvE4typeERS4_S7_, symObjAddr: 0xB3D8, symBinAddr: 0x1000CBEEC, symSize: 0x170 }
  - { offset: 0x27DDDB, size: 0x8, addend: 0x0, symName: '__ZNSt3__17__sort5B8nn200100INS_17_ClassicAlgPolicyERZN6fuzzer6Merger5MergeERKNS_3setIjNS_4lessIjEENS_9allocatorIjEEEEPS9_SB_SC_PNS_6vectorINS_12basic_stringIcNS_11char_traitsIcEENS7_IcEEEENS7_ISI_EEEEE3$_0PNS2_13MergeFileInfoETnNS_9enable_ifIXnt21__use_branchless_sortIT0_T1_EEiE4typeELi0EEEvSS_SS_SS_SS_SS_SR_', symObjAddr: 0xAF38, symBinAddr: 0x1000CBA4C, symSize: 0x13C }
  - { offset: 0x27E153, size: 0x8, addend: 0x0, symName: '__ZNSt3__17__sort4B8nn200100INS_17_ClassicAlgPolicyERZN6fuzzer6Merger5MergeERKNS_3setIjNS_4lessIjEENS_9allocatorIjEEEEPS9_SB_SC_PNS_6vectorINS_12basic_stringIcNS_11char_traitsIcEENS7_IcEEEENS7_ISI_EEEEE3$_0PNS2_13MergeFileInfoETnNS_9enable_ifIXnt21__use_branchless_sortIT0_T1_EEiE4typeELi0EEEvSS_SS_SS_SS_SR_', symObjAddr: 0xAE48, symBinAddr: 0x1000CB95C, symSize: 0xF0 }
  - { offset: 0x281931, size: 0x8, addend: 0x0, symName: '__ZN6fuzzer18ForEachNonZeroByteIZNKS_7TracePC15CollectFeaturesIZNS_6Fuzzer31CrashResistantMergeInternalStepERKNSt3__112basic_stringIcNS4_11char_traitsIcEENS4_9allocatorIcEEEEbE3$_1EEmT_EUlmmhE_EEmPKhSH_mSE_', symObjAddr: 0xB7CC, symBinAddr: 0x1000CC168, symSize: 0x714 }
  - { offset: 0x282489, size: 0x8, addend: 0x0, symName: '__ZN6fuzzer18ForEachNonZeroByteIZNKS_7TracePC15CollectFeaturesIZNS_6Fuzzer31CrashResistantMergeInternalStepERKNSt3__112basic_stringIcNS4_11char_traitsIcEENS4_9allocatorIcEEEEbE3$_2EEmT_EUlmmhE_EEmPKhSH_mSE_', symObjAddr: 0xC03C, symBinAddr: 0x1000CC9D8, symSize: 0xC5C }
  - { offset: 0x283559, size: 0x8, addend: 0x0, symName: __ZN6fuzzer19CrashResistantMergeERKNSt3__16vectorINS0_12basic_stringIcNS0_11char_traitsIcEENS0_9allocatorIcEEEENS5_IS7_EEEERKNS1_INS_9SizedFileENS5_ISC_EEEESG_PS9_RKNS0_3setIjNS0_4lessIjEENS5_IjEEEEPSM_SO_SP_RKS7_bb, symObjAddr: 0x57FC, symBinAddr: 0x1000C885C, symSize: 0x1708 }
  - { offset: 0x28A9C2, size: 0x8, addend: 0x0, symName: __ZN6fuzzer6Merger5ParseERKNSt3__112basic_stringIcNS1_11char_traitsIcEENS1_9allocatorIcEEEEb, symObjAddr: 0x0, symBinAddr: 0x1000C3460, symSize: 0x188 }
  - { offset: 0x28ACAF, size: 0x8, addend: 0x0, symName: __ZN6fuzzer6Merger5ParseERNSt3__113basic_istreamIcNS1_11char_traitsIcEEEEb, symObjAddr: 0x188, symBinAddr: 0x1000C35E8, symSize: 0xB10 }
  - { offset: 0x28C8DA, size: 0x8, addend: 0x0, symName: __ZN6fuzzer6Merger11ParseOrExitERNSt3__113basic_istreamIcNS1_11char_traitsIcEEEEb, symObjAddr: 0xC98, symBinAddr: 0x1000C40F8, symSize: 0x2C }
  - { offset: 0x28D313, size: 0x8, addend: 0x0, symName: __ZNSt3__16vectorIN6fuzzer13MergeFileInfoENS_9allocatorIS2_EEE6resizeEm, symObjAddr: 0xDFC, symBinAddr: 0x1000C4124, symSize: 0xCC }
  - { offset: 0x28DB25, size: 0x8, addend: 0x0, symName: __ZNK6fuzzer6Merger28ApproximateMemoryConsumptionEv, symObjAddr: 0x1190, symBinAddr: 0x1000C41F0, symSize: 0xE8 }
  - { offset: 0x28E275, size: 0x8, addend: 0x0, symName: __ZN6fuzzer6Merger11ParseOrExitERNSt3__113basic_istreamIcNS1_11char_traitsIcEEEEb, symObjAddr: 0xC98, symBinAddr: 0x1000C40F8, symSize: 0x2C }
  - { offset: 0x28E50B, size: 0x8, addend: 0x0, symName: __ZNSt3__16vectorIN6fuzzer13MergeFileInfoENS_9allocatorIS2_EEE8__appendEm, symObjAddr: 0x8F18, symBinAddr: 0x1000CA08C, symSize: 0x17C }
  - { offset: 0x28E977, size: 0x8, addend: 0x0, symName: __ZNSt3__16vectorIN6fuzzer13MergeFileInfoENS_9allocatorIS2_EEE20__throw_length_errorB8nn200100Ev, symObjAddr: 0x9094, symBinAddr: 0x1000CA208, symSize: 0x14 }
  - { offset: 0x28EA73, size: 0x8, addend: 0x0, symName: __ZNK6fuzzer6Merger28ApproximateMemoryConsumptionEv, symObjAddr: 0x1190, symBinAddr: 0x1000C41F0, symSize: 0xE8 }
  - { offset: 0x28EAC4, size: 0x8, addend: 0x0, symName: __ZNK6fuzzer6Merger28ApproximateMemoryConsumptionEv, symObjAddr: 0x1190, symBinAddr: 0x1000C41F0, symSize: 0xE8 }
  - { offset: 0x28F362, size: 0x8, addend: 0x0, symName: __ZN6fuzzer6Merger5MergeERKNSt3__13setIjNS1_4lessIjEENS1_9allocatorIjEEEEPS7_S9_SA_PNS1_6vectorINS1_12basic_stringIcNS1_11char_traitsIcEENS5_IcEEEENS5_ISG_EEEE, symObjAddr: 0x1278, symBinAddr: 0x1000C42D8, symSize: 0x11A4 }
  - { offset: 0x292582, size: 0x8, addend: 0x0, symName: __ZNK6fuzzer6Merger11AllFeaturesEv, symObjAddr: 0x241C, symBinAddr: 0x1000C547C, symSize: 0x350 }
  - { offset: 0x292C86, size: 0x8, addend: 0x0, symName: __ZNSt3__16vectorIN6fuzzer13MergeFileInfoENS_9allocatorIS2_EEE16__destroy_vectorclB8nn200100Ev, symObjAddr: 0xB678, symBinAddr: 0x1000CC05C, symSize: 0xC4 }
  - { offset: 0x292E3B, size: 0x8, addend: 0x0, symName: __ZNK6fuzzer6Merger11AllFeaturesEv, symObjAddr: 0x241C, symBinAddr: 0x1000C547C, symSize: 0x350 }
  - { offset: 0x29450A, size: 0x8, addend: 0x0, symName: __ZN6fuzzer6Fuzzer31CrashResistantMergeInternalStepERKNSt3__112basic_stringIcNS1_11char_traitsIcEENS1_9allocatorIcEEEEb, symObjAddr: 0x276C, symBinAddr: 0x1000C57CC, symSize: 0xFD8 }
  - { offset: 0x29736E, size: 0x8, addend: 0x0, symName: '__ZNK6fuzzer7TracePC15CollectFeaturesIZNS_6Fuzzer31CrashResistantMergeInternalStepERKNSt3__112basic_stringIcNS3_11char_traitsIcEENS3_9allocatorIcEEEEbE3$_1EEmT_', symObjAddr: 0x3744, symBinAddr: 0x1000C67A4, symSize: 0x4C0 }
  - { offset: 0x297D59, size: 0x8, addend: 0x0, symName: '__ZNK6fuzzer7TracePC15CollectFeaturesIZNS_6Fuzzer31CrashResistantMergeInternalStepERKNSt3__112basic_stringIcNS3_11char_traitsIcEENS3_9allocatorIcEEEEbE3$_1EEmT_', symObjAddr: 0x3744, symBinAddr: 0x1000C67A4, symSize: 0x4C0 }
  - { offset: 0x298764, size: 0x8, addend: 0x0, symName: '__ZNK6fuzzer7TracePC15CollectFeaturesIZNS_6Fuzzer31CrashResistantMergeInternalStepERKNSt3__112basic_stringIcNS3_11char_traitsIcEENS3_9allocatorIcEEEEbE3$_2EEmT_', symObjAddr: 0x3C04, symBinAddr: 0x1000C6C64, symSize: 0x6A8 }
  - { offset: 0x299422, size: 0x8, addend: 0x0, symName: __ZNSt3__16__treeImNS_4lessImEENS_9allocatorImEEE7destroyEPNS_11__tree_nodeImPvEE, symObjAddr: 0xB73C, symBinAddr: 0x1000CC120, symSize: 0x48 }
  - { offset: 0x2995FC, size: 0x8, addend: 0x0, symName: __ZNSt3__16vectorIN6fuzzer13MergeFileInfoENS_9allocatorIS2_EEE16__destroy_vectorclB8nn200100Ev, symObjAddr: 0xB678, symBinAddr: 0x1000CC05C, symSize: 0xC4 }
  - { offset: 0x29A08B, size: 0x8, addend: 0x0, symName: '__ZZN6fuzzer6Fuzzer31CrashResistantMergeInternalStepERKNSt3__112basic_stringIcNS1_11char_traitsIcEENS1_9allocatorIcEEEEbENK3$_2clEm', symObjAddr: 0xCC98, symBinAddr: 0x1000CD634, symSize: 0x140 }
  - { offset: 0x29AAA5, size: 0x8, addend: 0x0, symName: __ZN6fuzzer6Merger13SetCoverMergeERKNSt3__13setIjNS1_4lessIjEENS1_9allocatorIjEEEEPS7_S9_SA_PNS1_6vectorINS1_12basic_stringIcNS1_11char_traitsIcEENS5_IcEEEENS5_ISG_EEEE, symObjAddr: 0x42AC, symBinAddr: 0x1000C730C, symSize: 0x1550 }
  - { offset: 0x29E5A2, size: 0x8, addend: 0x0, symName: __ZNSt3__16vectorIbNS_9allocatorIbEEE18__construct_at_endB8nn200100Emb, symObjAddr: 0xCDD8, symBinAddr: 0x1000CD774, symSize: 0x1D0 }
  - { offset: 0x29F423, size: 0x8, addend: 0x0, symName: __ZNSt3__16vectorIN6fuzzer13MergeFileInfoENS_9allocatorIS2_EEE18__assign_with_sizeB8nn200100IPS2_S7_EEvT_T0_l, symObjAddr: 0xD3C8, symBinAddr: 0x1000CDD64, symSize: 0x2C0 }
  - { offset: 0x2A0274, size: 0x8, addend: 0x0, symName: __ZNSt3__16vectorIN6fuzzer13MergeFileInfoENS_9allocatorIS2_EEE13__vdeallocateEv, symObjAddr: 0xD688, symBinAddr: 0x1000CE024, symSize: 0xB4 }
  - { offset: 0x2A07D6, size: 0x8, addend: 0x0, symName: __ZNSt3__113unordered_setINS_12basic_stringIcNS_11char_traitsIcEENS_9allocatorIcEEEENS_4hashIS6_EENS_8equal_toIS6_EENS4_IS6_EEEC2ERKSC_, symObjAddr: 0x82AC, symBinAddr: 0x1000C9F64, symSize: 0x128 }
  - { offset: 0x2A17C0, size: 0x8, addend: 0x0, symName: __ZNSt3__16vectorIN6fuzzer13MergeFileInfoENS_9allocatorIS2_EEE18__insert_with_sizeB8nn200100INS_11__wrap_iterIPS2_EES9_EES9_NS7_IPKS2_EET_T0_l, symObjAddr: 0xD858, symBinAddr: 0x1000CE1F4, symSize: 0x404 }
  - { offset: 0x2A2836, size: 0x8, addend: 0x0, symName: __ZNKSt3__120__move_backward_implINS_17_ClassicAlgPolicyEEclB8nn200100IPN6fuzzer13MergeFileInfoES6_S6_EENS_4pairIT_T1_EES8_T0_S9_, symObjAddr: 0xDC5C, symBinAddr: 0x1000CE5F8, symSize: 0x130 }
  - { offset: 0x2A3F20, size: 0x8, addend: 0x0, symName: __ZNSt3__113unordered_setINS_12basic_stringIcNS_11char_traitsIcEENS_9allocatorIcEEEENS_4hashIS6_EENS_8equal_toIS6_EENS4_IS6_EEEC2ERKSC_, symObjAddr: 0x82AC, symBinAddr: 0x1000C9F64, symSize: 0x128 }
  - { offset: 0x2A4F12, size: 0x8, addend: 0x0, symName: __ZNSt3__16vectorIN6fuzzer13MergeFileInfoENS_9allocatorIS2_EEE8__appendEm, symObjAddr: 0x8F18, symBinAddr: 0x1000CA08C, symSize: 0x17C }
  - { offset: 0x2A534D, size: 0x8, addend: 0x0, symName: __ZNSt3__114__split_bufferIN6fuzzer13MergeFileInfoERNS_9allocatorIS2_EEED2Ev, symObjAddr: 0x91A0, symBinAddr: 0x1000CA314, symSize: 0xA4 }
  - { offset: 0x2A58F7, size: 0x8, addend: 0x0, symName: __ZNSt3__16vectorIN6fuzzer13MergeFileInfoENS_9allocatorIS2_EEE20__throw_length_errorB8nn200100Ev, symObjAddr: 0x9094, symBinAddr: 0x1000CA208, symSize: 0x14 }
  - { offset: 0x2A590F, size: 0x8, addend: 0x0, symName: __ZNSt3__134__uninitialized_allocator_relocateB8nn200100INS_9allocatorIN6fuzzer13MergeFileInfoEEEPS3_EEvRT_T0_S8_S8_, symObjAddr: 0x90A8, symBinAddr: 0x1000CA21C, symSize: 0xF8 }
  - { offset: 0x2A60CA, size: 0x8, addend: 0x0, symName: '__ZZNK6fuzzer7TracePC15CollectFeaturesIZNS_6Fuzzer31CrashResistantMergeInternalStepERKNSt3__112basic_stringIcNS3_11char_traitsIcEENS3_9allocatorIcEEEEbE3$_1EEmT_ENKUlmmhE_clEmmh', symObjAddr: 0xBEE0, symBinAddr: 0x1000CC87C, symSize: 0x15C }
  - { offset: 0x2A6654, size: 0x8, addend: 0x0, symName: __ZNSt3__16vectorIN6fuzzer13MergeFileInfoENS_9allocatorIS2_EEE13__vdeallocateEv, symObjAddr: 0xD688, symBinAddr: 0x1000CE024, symSize: 0xB4 }
  - { offset: 0x2A6C23, size: 0x8, addend: 0x0, symName: __ZN6fuzzer13MergeFileInfoC2ERKS0_, symObjAddr: 0xD73C, symBinAddr: 0x1000CE0D8, symSize: 0x11C }
  - { offset: 0x2A738B, size: 0x8, addend: 0x0, symName: __ZNSt3__16vectorIN6fuzzer13MergeFileInfoENS_9allocatorIS2_EEE18__insert_with_sizeB8nn200100INS_11__wrap_iterIPS2_EES9_EES9_NS7_IPKS2_EET_T0_l, symObjAddr: 0xD858, symBinAddr: 0x1000CE1F4, symSize: 0x404 }
  - { offset: 0x2A7616, size: 0x8, addend: 0x0, symName: __ZNKSt3__120__move_backward_implINS_17_ClassicAlgPolicyEEclB8nn200100IPN6fuzzer13MergeFileInfoES6_S6_EENS_4pairIT_T1_EES8_T0_S9_, symObjAddr: 0xDC5C, symBinAddr: 0x1000CE5F8, symSize: 0x130 }
  - { offset: 0x2A99C9, size: 0x8, addend: 0x0, symName: __ZN6fuzzer18MutationDispatcherC2ERNS_6RandomERKNS_14FuzzingOptionsE, symObjAddr: 0x0, symBinAddr: 0x1000CE728, symSize: 0x360 }
  - { offset: 0x2A99E2, size: 0x8, addend: 0x0, symName: __ZN6fuzzer10Dictionary12kMaxDictSizeE, symObjAddr: 0x54C8, symBinAddr: 0x1000E06A0, symSize: 0x0 }
  - { offset: 0x2AA790, size: 0x8, addend: 0x0, symName: __ZN6fuzzerL6RandChERNS_6RandomE, symObjAddr: 0x1AA8, symBinAddr: 0x1000D01D0, symSize: 0xF0 }
  - { offset: 0x2AA7CE, size: 0x8, addend: 0x0, symName: __ZN6fuzzerL6RandChERNS_6RandomE, symObjAddr: 0x1AA8, symBinAddr: 0x1000D01D0, symSize: 0xF0 }
  - { offset: 0x2AA7E9, size: 0x8, addend: 0x0, symName: __ZN6fuzzerL6RandChERNS_6RandomE, symObjAddr: 0x1AA8, symBinAddr: 0x1000D01D0, symSize: 0xF0 }
  - { offset: 0x2AA804, size: 0x8, addend: 0x0, symName: __ZN6fuzzerL6RandChERNS_6RandomE, symObjAddr: 0x1AA8, symBinAddr: 0x1000D01D0, symSize: 0xF0 }
  - { offset: 0x2AAA16, size: 0x8, addend: 0x0, symName: __ZN6fuzzer19ChangeBinaryIntegerItEEmPhmRNS_6RandomE, symObjAddr: 0x33B4, symBinAddr: 0x1000D1ADC, symSize: 0x230 }
  - { offset: 0x2AAF30, size: 0x8, addend: 0x0, symName: __ZN6fuzzer19ChangeBinaryIntegerIyEEmPhmRNS_6RandomE, symObjAddr: 0x2F60, symBinAddr: 0x1000D1688, symSize: 0x22C }
  - { offset: 0x2AB44A, size: 0x8, addend: 0x0, symName: __ZN6fuzzer19ChangeBinaryIntegerIhEEmPhmRNS_6RandomE, symObjAddr: 0x35E4, symBinAddr: 0x1000D1D0C, symSize: 0x200 }
  - { offset: 0x2AB947, size: 0x8, addend: 0x0, symName: __ZN6fuzzer19ChangeBinaryIntegerIjEEmPhmRNS_6RandomE, symObjAddr: 0x318C, symBinAddr: 0x1000D18B4, symSize: 0x228 }
  - { offset: 0x2B5953, size: 0x8, addend: 0x0, symName: __ZNSt3__16vectorIN6fuzzer18MutationDispatcher7MutatorENS_9allocatorIS3_EEE18__insert_with_sizeB8nn200100IPKS3_S9_EENS_11__wrap_iterIPS3_EENSA_IS9_EET_T0_l, symObjAddr: 0x49D4, symBinAddr: 0x1000D2DD4, symSize: 0x2AC }
  - { offset: 0x2B620C, size: 0x8, addend: 0x0, symName: __ZN6fuzzer18MutationDispatcherC2ERNS_6RandomERKNS_14FuzzingOptionsE, symObjAddr: 0x0, symBinAddr: 0x1000CE728, symSize: 0x360 }
  - { offset: 0x2B6A14, size: 0x8, addend: 0x0, symName: __ZNSt3__16vectorIN6fuzzer18MutationDispatcher7MutatorENS_9allocatorIS3_EEE18__insert_with_sizeB8nn200100IPKS3_S9_EENS_11__wrap_iterIPS3_EENSA_IS9_EET_T0_l, symObjAddr: 0x49D4, symBinAddr: 0x1000D2DD4, symSize: 0x2AC }
  - { offset: 0x2B7432, size: 0x8, addend: 0x0, symName: __ZNSt3__16vectorIN6fuzzer18MutationDispatcher7MutatorENS_9allocatorIS3_EEE20__throw_length_errorB8nn200100Ev, symObjAddr: 0x4C80, symBinAddr: 0x1000D3080, symSize: 0x14 }
  - { offset: 0x2B744F, size: 0x8, addend: 0x0, symName: __ZNSt3__16vectorIN6fuzzer18MutationDispatcher7MutatorENS_9allocatorIS3_EEE9push_backB8nn200100EOS3_, symObjAddr: 0x12CC, symBinAddr: 0x1000CF9F4, symSize: 0x130 }
  - { offset: 0x2B7889, size: 0x8, addend: 0x0, symName: __ZN6fuzzer18MutationDispatcher22Mutate_AddWordFromTORCEPhmm, symObjAddr: 0x13FC, symBinAddr: 0x1000CFB24, symSize: 0x41C }
  - { offset: 0x2B7894, size: 0x8, addend: 0x0, symName: __ZNSt3__16vectorIN6fuzzer18MutationDispatcher7MutatorENS_9allocatorIS3_EEE18__assign_with_sizeB8nn200100IPS3_S8_EEvT_T0_l, symObjAddr: 0x4C94, symBinAddr: 0x1000D3094, symSize: 0x180 }
  - { offset: 0x2B82F0, size: 0x8, addend: 0x0, symName: __ZNSt3__16vectorIhNS_9allocatorIhEEE8__appendEm, symObjAddr: 0x4E14, symBinAddr: 0x1000D3214, symSize: 0x220 }
  - { offset: 0x2B83E6, size: 0x8, addend: 0x0, symName: __ZN6fuzzer18MutationDispatcher17Mutate_EraseBytesEPhmm, symObjAddr: 0x360, symBinAddr: 0x1000CEA88, symSize: 0xE4 }
  - { offset: 0x2B8622, size: 0x8, addend: 0x0, symName: __ZN6fuzzer18MutationDispatcher17Mutate_InsertByteEPhmm, symObjAddr: 0x444, symBinAddr: 0x1000CEB6C, symSize: 0xB8 }
  - { offset: 0x2B87C1, size: 0x8, addend: 0x0, symName: __ZN6fuzzer18MutationDispatcher26Mutate_InsertRepeatedBytesEPhmm, symObjAddr: 0x4FC, symBinAddr: 0x1000CEC24, symSize: 0x248 }
  - { offset: 0x2B8AF4, size: 0x8, addend: 0x0, symName: __ZN6fuzzer18MutationDispatcher17Mutate_ChangeByteEPhmm, symObjAddr: 0x744, symBinAddr: 0x1000CEE6C, symSize: 0xAC }
  - { offset: 0x2B8C56, size: 0x8, addend: 0x0, symName: __ZN6fuzzer18MutationDispatcher16Mutate_ChangeBitEPhmm, symObjAddr: 0x7F0, symBinAddr: 0x1000CEF18, symSize: 0xC0 }
  - { offset: 0x2B8F61, size: 0x8, addend: 0x0, symName: __ZN6fuzzer18MutationDispatcher19Mutate_ShuffleBytesEPhmm, symObjAddr: 0x8B0, symBinAddr: 0x1000CEFD8, symSize: 0x140 }
  - { offset: 0x2B9472, size: 0x8, addend: 0x0, symName: __ZN6fuzzer18MutationDispatcher25Mutate_ChangeASCIIIntegerEPhmm, symObjAddr: 0x9F0, symBinAddr: 0x1000CF118, symSize: 0x238 }
  - { offset: 0x2B9848, size: 0x8, addend: 0x0, symName: __ZN6fuzzer18MutationDispatcher26Mutate_ChangeBinaryIntegerEPhmm, symObjAddr: 0xC28, symBinAddr: 0x1000CF350, symSize: 0xC8 }
  - { offset: 0x2B9A1F, size: 0x8, addend: 0x0, symName: __ZN6fuzzer18MutationDispatcher15Mutate_CopyPartEPhmm, symObjAddr: 0xCF0, symBinAddr: 0x1000CF418, symSize: 0x174 }
  - { offset: 0x2B9DEE, size: 0x8, addend: 0x0, symName: __ZN6fuzzer18MutationDispatcher12InsertPartOfEPKhmPhmm, symObjAddr: 0x2D78, symBinAddr: 0x1000D14A0, symSize: 0x1E8 }
  - { offset: 0x2BA339, size: 0x8, addend: 0x0, symName: __ZN6fuzzer18MutationDispatcher16Mutate_CrossOverEPhmm, symObjAddr: 0xE64, symBinAddr: 0x1000CF58C, symSize: 0x2CC }
  - { offset: 0x2BA8E0, size: 0x8, addend: 0x0, symName: __ZNSt3__16vectorIhNS_9allocatorIhEEE8__appendEm, symObjAddr: 0x4E14, symBinAddr: 0x1000D3214, symSize: 0x220 }
  - { offset: 0x2BAD57, size: 0x8, addend: 0x0, symName: __ZN6fuzzer18MutationDispatcher10CopyPartOfEPKhmPhm, symObjAddr: 0x2C48, symBinAddr: 0x1000D1370, symSize: 0x130 }
  - { offset: 0x2BB0FC, size: 0x8, addend: 0x0, symName: __ZN6fuzzer18MutationDispatcher34Mutate_AddWordFromManualDictionaryEPhmm, symObjAddr: 0x1130, symBinAddr: 0x1000CF858, symSize: 0xCC }
  - { offset: 0x2BB2E8, size: 0x8, addend: 0x0, symName: __ZN6fuzzer18MutationDispatcher20ApplyDictionaryEntryEPhmmRNS_15DictionaryEntryE, symObjAddr: 0x1C6C, symBinAddr: 0x1000D0394, symSize: 0x22C }
  - { offset: 0x2BB78F, size: 0x8, addend: 0x0, symName: __ZNSt3__16vectorIPN6fuzzer15DictionaryEntryENS_9allocatorIS3_EEE9push_backB8nn200100EOS3_, symObjAddr: 0x2B50, symBinAddr: 0x1000D1278, symSize: 0xF8 }
  - { offset: 0x2BBBD3, size: 0x8, addend: 0x0, symName: __ZN6fuzzer18MutationDispatcher10CopyPartOfEPKhmPhm, symObjAddr: 0x2C48, symBinAddr: 0x1000D1370, symSize: 0x130 }
  - { offset: 0x2BBBDE, size: 0x8, addend: 0x0, symName: __ZN6fuzzer18MutationDispatcher42Mutate_AddWordFromPersistentAutoDictionaryEPhmm, symObjAddr: 0x11FC, symBinAddr: 0x1000CF924, symSize: 0xD0 }
  - { offset: 0x2BC137, size: 0x8, addend: 0x0, symName: __ZNSt3__16vectorIN6fuzzer18MutationDispatcher7MutatorENS_9allocatorIS3_EEE20__throw_length_errorB8nn200100Ev, symObjAddr: 0x4C80, symBinAddr: 0x1000D3080, symSize: 0x14 }
  - { offset: 0x2BC14F, size: 0x8, addend: 0x0, symName: __ZNSt3__16vectorIN6fuzzer18MutationDispatcher7MutatorENS_9allocatorIS3_EEE18__assign_with_sizeB8nn200100IPS3_S8_EEvT_T0_l, symObjAddr: 0x4C94, symBinAddr: 0x1000D3094, symSize: 0x180 }
  - { offset: 0x2BC2AF, size: 0x8, addend: 0x0, symName: __ZN6fuzzer18MutationDispatcher22Mutate_AddWordFromTORCEPhmm, symObjAddr: 0x13FC, symBinAddr: 0x1000CFB24, symSize: 0x41C }
  - { offset: 0x2BCAD5, size: 0x8, addend: 0x0, symName: __ZN6fuzzer18MutationDispatcher26MakeDictionaryEntryFromCMPIjEENS_15DictionaryEntryET_S3_PKhm, symObjAddr: 0x29FC, symBinAddr: 0x1000D1124, symSize: 0x154 }
  - { offset: 0x2BCF20, size: 0x8, addend: 0x0, symName: __ZN6fuzzer18MutationDispatcher26MakeDictionaryEntryFromCMPIyEENS_15DictionaryEntryET_S3_PKhm, symObjAddr: 0x2754, symBinAddr: 0x1000D0E7C, symSize: 0x154 }
  - { offset: 0x2BD36B, size: 0x8, addend: 0x0, symName: __ZN6fuzzer18MutationDispatcher26MakeDictionaryEntryFromCMPEPKvS2_S2_S2_mPKhm, symObjAddr: 0x1E98, symBinAddr: 0x1000D05C0, symSize: 0x89C }
  - { offset: 0x2BDAE8, size: 0x8, addend: 0x0, symName: __ZN6fuzzer18MutationDispatcher26MakeDictionaryEntryFromCMPItEENS_15DictionaryEntryET_S3_PKhm, symObjAddr: 0x28A8, symBinAddr: 0x1000D0FD0, symSize: 0x154 }
  - { offset: 0x2BDF42, size: 0x8, addend: 0x0, symName: __ZN6fuzzer18MutationDispatcher13Mutate_CustomEPhmm, symObjAddr: 0x1818, symBinAddr: 0x1000CFF40, symSize: 0xC4 }
  - { offset: 0x2BE079, size: 0x8, addend: 0x0, symName: __ZN6fuzzer18MutationDispatcher22Mutate_CustomCrossOverEPhmm, symObjAddr: 0x18DC, symBinAddr: 0x1000D0004, symSize: 0x1C8 }
  - { offset: 0x2BE3D8, size: 0x8, addend: 0x0, symName: __ZN6fuzzer18MutationDispatcherC1ERNS_6RandomERKNS_14FuzzingOptionsE, symObjAddr: 0x1AA4, symBinAddr: 0x1000D01CC, symSize: 0x4 }
  - { offset: 0x2BE422, size: 0x8, addend: 0x0, symName: __ZN6fuzzer18MutationDispatcherC1ERNS_6RandomERKNS_14FuzzingOptionsE, symObjAddr: 0x1AA4, symBinAddr: 0x1000D01CC, symSize: 0x4 }
  - { offset: 0x2BE443, size: 0x8, addend: 0x0, symName: __ZN6fuzzer18MutationDispatcher21AddWordFromDictionaryERNS_10DictionaryEPhmm, symObjAddr: 0x1B98, symBinAddr: 0x1000D02C0, symSize: 0xD4 }
  - { offset: 0x2BE6B6, size: 0x8, addend: 0x0, symName: __ZN6fuzzer18MutationDispatcher26MakeDictionaryEntryFromCMPERKNS_9FixedWordILm64EEES4_PKhm, symObjAddr: 0x2734, symBinAddr: 0x1000D0E5C, symSize: 0x20 }
  - { offset: 0x2BEB08, size: 0x8, addend: 0x0, symName: __ZNSt3__16vectorIPN6fuzzer15DictionaryEntryENS_9allocatorIS3_EEE20__throw_length_errorB8nn200100Ev, symObjAddr: 0x53F0, symBinAddr: 0x1000D3434, symSize: 0x14 }
  - { offset: 0x2BEB20, size: 0x8, addend: 0x0, symName: __ZNSt3__16vectorIN6fuzzer15DictionaryEntryENS_9allocatorIS2_EEE20__throw_length_errorB8nn200100Ev, symObjAddr: 0x5404, symBinAddr: 0x1000D3448, symSize: 0x14 }
  - { offset: 0x2BEBCD, size: 0x8, addend: 0x0, symName: __ZN6fuzzer18MutationDispatcher21StartMutationSequenceEv, symObjAddr: 0x37E4, symBinAddr: 0x1000D1F0C, symSize: 0x18 }
  - { offset: 0x2BEDF2, size: 0x8, addend: 0x0, symName: __ZN6fuzzer18MutationDispatcher32RecordSuccessfulMutationSequenceEv, symObjAddr: 0x37FC, symBinAddr: 0x1000D1F24, symSize: 0x130 }
  - { offset: 0x2BF3ED, size: 0x8, addend: 0x0, symName: __ZN6fuzzer18MutationDispatcher26PrintRecommendedDictionaryEv, symObjAddr: 0x392C, symBinAddr: 0x1000D2054, symSize: 0x270 }
  - { offset: 0x2BFB2D, size: 0x8, addend: 0x0, symName: __ZN6fuzzer18MutationDispatcher21PrintMutationSequenceEb, symObjAddr: 0x3B9C, symBinAddr: 0x1000D22C4, symSize: 0x134 }
  - { offset: 0x2BFB38, size: 0x8, addend: 0x0, symName: __ZNSt3__16vectorIN6fuzzer15DictionaryEntryENS_9allocatorIS2_EEE20__throw_length_errorB8nn200100Ev, symObjAddr: 0x5404, symBinAddr: 0x1000D3448, symSize: 0x14 }
  - { offset: 0x2BFBB7, size: 0x8, addend: 0x0, symName: __ZN6fuzzer18MutationDispatcher21PrintMutationSequenceEb, symObjAddr: 0x3B9C, symBinAddr: 0x1000D22C4, symSize: 0x134 }
  - { offset: 0x2BFE2D, size: 0x8, addend: 0x0, symName: __ZN6fuzzer18MutationDispatcher16MutationSequenceEv, symObjAddr: 0x3CD0, symBinAddr: 0x1000D23F8, symSize: 0x6C }
  - { offset: 0x2C0010, size: 0x8, addend: 0x0, symName: __ZN6fuzzer18MutationDispatcher6MutateEPhmm, symObjAddr: 0x3D3C, symBinAddr: 0x1000D2464, symSize: 0x154 }
  - { offset: 0x2C0212, size: 0x8, addend: 0x0, symName: __ZNSt3__16vectorIN6fuzzer18MutationDispatcher7MutatorENS_9allocatorIS3_EEE9push_backB8nn200100ERKS3_, symObjAddr: 0x4134, symBinAddr: 0x1000D285C, symSize: 0x130 }
  - { offset: 0x2C064C, size: 0x8, addend: 0x0, symName: __ZN6fuzzer18MutationDispatcher14MutateWithMaskEPhmmRKNSt3__16vectorIhNS2_9allocatorIhEEEE, symObjAddr: 0x4264, symBinAddr: 0x1000D298C, symSize: 0x3D4 }
  - { offset: 0x2C0657, size: 0x8, addend: 0x0, symName: __ZN6fuzzer18MutationDispatcher10MutateImplEPhmmRNSt3__16vectorINS0_7MutatorENS2_9allocatorIS4_EEEE, symObjAddr: 0x3E90, symBinAddr: 0x1000D25B8, symSize: 0x150 }
  - { offset: 0x2C0822, size: 0x8, addend: 0x0, symName: __ZN6fuzzer18MutationDispatcher13DefaultMutateEPhmm, symObjAddr: 0x3FE0, symBinAddr: 0x1000D2708, symSize: 0x154 }
  - { offset: 0x2C0BA1, size: 0x8, addend: 0x0, symName: __ZN6fuzzer18MutationDispatcher14MutateWithMaskEPhmmRKNSt3__16vectorIhNS2_9allocatorIhEEEE, symObjAddr: 0x4264, symBinAddr: 0x1000D298C, symSize: 0x3D4 }
  - { offset: 0x2C0D7E, size: 0x8, addend: 0x0, symName: __ZN6fuzzer18MutationDispatcher25AddWordToManualDictionaryERKNS_9FixedWordILm64EEE, symObjAddr: 0x4638, symBinAddr: 0x1000D2D60, symSize: 0x74 }
  - { offset: 0x2C383F, size: 0x8, addend: 0x0, symName: __ZN6fuzzer11ComputeSHA1EPKhmPh, symObjAddr: 0x0, symBinAddr: 0x1000D345C, symSize: 0x15C }
  - { offset: 0x2C385F, size: 0x8, addend: 0x0, symName: __ZN6fuzzer11ComputeSHA1EPKhmPh, symObjAddr: 0x0, symBinAddr: 0x1000D345C, symSize: 0x15C }
  - { offset: 0x2C3A67, size: 0x8, addend: 0x0, symName: __ZN6fuzzer12Sha1ToStringEPKh, symObjAddr: 0x15C, symBinAddr: 0x1000D35B8, symSize: 0x2C8 }
  - { offset: 0x2C3FFA, size: 0x8, addend: 0x0, symName: __ZN6fuzzer4HashERKNSt3__16vectorIhNS0_9allocatorIhEEEE, symObjAddr: 0x424, symBinAddr: 0x1000D3880, symSize: 0x50 }
  - { offset: 0x2C947F, size: 0x8, addend: 0x0, symName: __ZN12_GLOBAL__N_117sha1_addUncountedEPNS_7sha1nfoEj, symObjAddr: 0x474, symBinAddr: 0x1000D38D0, symSize: 0x174 }
  - { offset: 0x2CBB93, size: 0x8, addend: 0x0, symName: ___sancov_lowest_stack, symObjAddr: 0x333C, symBinAddr: 0x1001496D8, symSize: 0x0 }
  - { offset: 0x2CBBB6, size: 0x8, addend: 0x0, symName: __ZN6fuzzer3TPCE, symObjAddr: 0x57E00, symBinAddr: 0x100149A00, symSize: 0x0 }
  - { offset: 0x2CC55F, size: 0x8, addend: 0x0, symName: __ZN6fuzzer34WarnAboutDeprecatedInstrumentationEPKc, symObjAddr: 0x1DD0, symBinAddr: 0x1000D5814, symSize: 0x20 }
  - { offset: 0x2CC5A2, size: 0x8, addend: 0x0, symName: ___sanitizer_cov_trace_pc_guard, symObjAddr: 0x1DF0, symBinAddr: 0x1000D5834, symSize: 0x28 }
  - { offset: 0x2D1FE7, size: 0x8, addend: 0x0, symName: __ZNSt3__119piecewise_constructE, symObjAddr: 0x3994, symBinAddr: 0x1000E06C8, symSize: 0x0 }
  - { offset: 0x2D3810, size: 0x8, addend: 0x0, symName: __ZNSt3__120__throw_length_errorB8nn200100EPKc, symObjAddr: 0x3280, symBinAddr: 0x1000D6CC4, symSize: 0x1C }
  - { offset: 0x2D383D, size: 0x8, addend: 0x0, symName: __ZNSt3__112basic_stringIcNS_11char_traitsIcEENS_9allocatorIcEEE20__throw_out_of_rangeB8nn200100Ev, symObjAddr: 0x329C, symBinAddr: 0x1000D6CE0, symSize: 0x14 }
  - { offset: 0x2D3848, size: 0x8, addend: 0x0, symName: __ZNSt3__120__throw_out_of_rangeB8nn200100EPKc, symObjAddr: 0x32B0, symBinAddr: 0x1000D6CF4, symSize: 0x1C }
  - { offset: 0x2D3875, size: 0x8, addend: 0x0, symName: __ZNSt3__112basic_stringIcNS_11char_traitsIcEENS_9allocatorIcEEE20__throw_length_errorB8nn200100Ev, symObjAddr: 0x32CC, symBinAddr: 0x1000D6D10, symSize: 0x14 }
  - { offset: 0x2D4570, size: 0x8, addend: 0x0, symName: __ZSt28__throw_bad_array_new_lengthB8nn200100v, symObjAddr: 0x308C, symBinAddr: 0x1000D6AD0, symSize: 0x14 }
  - { offset: 0x2D458E, size: 0x8, addend: 0x0, symName: __ZNSt3__112__hash_tableINS_17__hash_value_typeImmEENS_22__unordered_map_hasherImS2_NS_4hashImEENS_8equal_toImEELb1EEENS_21__unordered_map_equalImS2_S7_S5_Lb1EEENS_9allocatorIS2_EEE11__do_rehashILb1EEEvm, symObjAddr: 0x30A0, symBinAddr: 0x1000D6AE4, symSize: 0x1CC }
  - { offset: 0x2D4EE4, size: 0x8, addend: 0x0, symName: __ZN6fuzzer7TracePCD1Ev, symObjAddr: 0x0, symBinAddr: 0x1000D3A44, symSize: 0x70 }
  - { offset: 0x2D5255, size: 0x8, addend: 0x0, symName: __ZNSt3__16__treeIPKN6fuzzer7TracePC12PCTableEntryENS_4lessIS5_EENS_9allocatorIS5_EEE7destroyEPNS_11__tree_nodeIS5_PvEE, symObjAddr: 0x2D0C, symBinAddr: 0x1000D6750, symSize: 0x48 }
  - { offset: 0x2D538A, size: 0x8, addend: 0x0, symName: __ZN6fuzzer7TracePC18GetTotalPCCoverageEv, symObjAddr: 0x70, symBinAddr: 0x1000D3AB4, symSize: 0xC }
  - { offset: 0x2D53B5, size: 0x8, addend: 0x0, symName: __ZN6fuzzer7TracePC18GetTotalPCCoverageEv, symObjAddr: 0x70, symBinAddr: 0x1000D3AB4, symSize: 0xC }
  - { offset: 0x2D541A, size: 0x8, addend: 0x0, symName: __ZN6fuzzer7TracePC28HandleInline8bitCountersInitEPhS1_, symObjAddr: 0x7C, symBinAddr: 0x1000D3AC0, symSize: 0x1AC }
  - { offset: 0x2D55E3, size: 0x8, addend: 0x0, symName: __ZN6fuzzer7TracePC13HandlePCsInitEPKmS2_, symObjAddr: 0x228, symBinAddr: 0x1000D3C6C, symSize: 0x48 }
  - { offset: 0x2D561D, size: 0x8, addend: 0x0, symName: __ZN6fuzzer7TracePC15PrintModuleInfoEv, symObjAddr: 0x270, symBinAddr: 0x1000D3CB4, symSize: 0x1A8 }
  - { offset: 0x2D57E4, size: 0x8, addend: 0x0, symName: '__ZNK6fuzzer7TracePC15CollectFeaturesIZNS0_15PrintModuleInfoEvE3$_0EEmT_', symObjAddr: 0x418, symBinAddr: 0x1000D3E5C, symSize: 0xF4 }
  - { offset: 0x2D57F5, size: 0x8, addend: 0x0, symName: '__ZNK6fuzzer7TracePC15CollectFeaturesIZNS0_15PrintModuleInfoEvE3$_0EEmT_', symObjAddr: 0x418, symBinAddr: 0x1000D3E5C, symSize: 0xF4 }
  - { offset: 0x2D5A59, size: 0x8, addend: 0x0, symName: __ZN6fuzzer7TracePC18HandleCallerCalleeEmm, symObjAddr: 0x50C, symBinAddr: 0x1000D3F50, symSize: 0x4C }
  - { offset: 0x2D5AEA, size: 0x8, addend: 0x0, symName: __ZN6fuzzer7TracePC20GetNextInstructionPcEm, symObjAddr: 0x558, symBinAddr: 0x1000D3F9C, symSize: 0x8 }
  - { offset: 0x2D5B29, size: 0x8, addend: 0x0, symName: __ZN6fuzzer7TracePC17UpdateObservedPCsEv, symObjAddr: 0x560, symBinAddr: 0x1000D3FA4, symSize: 0x5F8 }
  - { offset: 0x2D6736, size: 0x8, addend: 0x0, symName: __ZN6fuzzer7TracePC15PCTableEntryIdxEPKNS0_12PCTableEntryE, symObjAddr: 0xB58, symBinAddr: 0x1000D459C, symSize: 0x54 }
  - { offset: 0x2D6E97, size: 0x8, addend: 0x0, symName: __ZNSt3__112__hash_tableINS_17__hash_value_typeImmEENS_22__unordered_map_hasherImS2_NS_4hashImEENS_8equal_toImEELb1EEENS_21__unordered_map_equalImS2_S7_S5_Lb1EEENS_9allocatorIS2_EEE25__emplace_unique_key_argsImJRKNS_21piecewise_construct_tENS_5tupleIJRKmEEENSI_IJEEEEEENS_4pairINS_15__hash_iteratorIPNS_11__hash_nodeIS2_PvEEEEbEERKT_DpOT0_, symObjAddr: 0x2D54, symBinAddr: 0x1000D6798, symSize: 0x338 }
  - { offset: 0x2D74B0, size: 0x8, addend: 0x0, symName: __ZNSt3__16vectorImNS_9allocatorImEEE20__throw_length_errorB8nn200100Ev, symObjAddr: 0x326C, symBinAddr: 0x1000D6CB0, symSize: 0x14 }
  - { offset: 0x2D74C8, size: 0x8, addend: 0x0, symName: __ZNSt3__120__throw_length_errorB8nn200100EPKc, symObjAddr: 0x3280, symBinAddr: 0x1000D6CC4, symSize: 0x1C }
  - { offset: 0x2D74D3, size: 0x8, addend: 0x0, symName: __ZN6fuzzer7TracePC15PCTableEntryIdxEPKNS0_12PCTableEntryE, symObjAddr: 0xB58, symBinAddr: 0x1000D459C, symSize: 0x54 }
  - { offset: 0x2D7541, size: 0x8, addend: 0x0, symName: __ZN6fuzzer7TracePC17PCTableEntryByIdxEm, symObjAddr: 0xBAC, symBinAddr: 0x1000D45F0, symSize: 0x48 }
  - { offset: 0x2D7AB0, size: 0x8, addend: 0x0, symName: __ZN6fuzzer7TracePC16SetFocusFunctionERKNSt3__112basic_stringIcNS1_11char_traitsIcEENS1_9allocatorIcEEEE, symObjAddr: 0xBF4, symBinAddr: 0x1000D4638, symSize: 0x388 }
  - { offset: 0x2D8566, size: 0x8, addend: 0x0, symName: __ZN6fuzzer7TracePC21ObservedFocusFunctionEv, symObjAddr: 0xF7C, symBinAddr: 0x1000D49C0, symSize: 0x24 }
  - { offset: 0x2D85AD, size: 0x8, addend: 0x0, symName: __ZNSt3__112basic_stringIcNS_11char_traitsIcEENS_9allocatorIcEEE20__throw_out_of_rangeB8nn200100Ev, symObjAddr: 0x329C, symBinAddr: 0x1000D6CE0, symSize: 0x14 }
  - { offset: 0x2D85C5, size: 0x8, addend: 0x0, symName: __ZNSt3__120__throw_out_of_rangeB8nn200100EPKc, symObjAddr: 0x32B0, symBinAddr: 0x1000D6CF4, symSize: 0x1C }
  - { offset: 0x2D85D0, size: 0x8, addend: 0x0, symName: __ZNSt3__112basic_stringIcNS_11char_traitsIcEENS_9allocatorIcEEE20__throw_length_errorB8nn200100Ev, symObjAddr: 0x32CC, symBinAddr: 0x1000D6D10, symSize: 0x14 }
  - { offset: 0x2D85E8, size: 0x8, addend: 0x0, symName: __ZTW21__sancov_lowest_stack, symObjAddr: 0x32E0, symBinAddr: 0x1000D6D24, symSize: 0x20 }
  - { offset: 0x2D85F3, size: 0x8, addend: 0x0, symName: __ZN6fuzzer7TracePC21ObservedFocusFunctionEv, symObjAddr: 0xF7C, symBinAddr: 0x1000D49C0, symSize: 0x24 }
  - { offset: 0x2D861D, size: 0x8, addend: 0x0, symName: __ZN6fuzzer7TracePC13PrintCoverageEb, symObjAddr: 0xFA0, symBinAddr: 0x1000D49E4, symSize: 0xA48 }
  - { offset: 0x2DA9E4, size: 0x8, addend: 0x0, symName: __ZN6fuzzer7TracePC17AddValueForMemcmpEPvPKvS3_mb, symObjAddr: 0x19E8, symBinAddr: 0x1000D542C, symSize: 0x2C4 }
  - { offset: 0x2DADD1, size: 0x8, addend: 0x0, symName: __ZN6fuzzer7TracePC17AddValueForMemcmpEPvPKvS3_mb, symObjAddr: 0x19E8, symBinAddr: 0x1000D542C, symSize: 0x2C4 }
  - { offset: 0x2DB0FF, size: 0x8, addend: 0x0, symName: __ZN6fuzzer7TracePC19ClearInlineCountersEv, symObjAddr: 0x1CAC, symBinAddr: 0x1000D56F0, symSize: 0xB8 }
  - { offset: 0x2DB26F, size: 0x8, addend: 0x0, symName: __ZN6fuzzer7TracePC18RecordInitialStackEv, symObjAddr: 0x1D64, symBinAddr: 0x1000D57A8, symSize: 0x3C }
  - { offset: 0x2DB2B7, size: 0x8, addend: 0x0, symName: __ZNK6fuzzer7TracePC17GetMaxStackOffsetEv, symObjAddr: 0x1DA0, symBinAddr: 0x1000D57E4, symSize: 0x30 }
  - { offset: 0x2DB2E5, size: 0x8, addend: 0x0, symName: ___sanitizer_cov_trace_pc_guard, symObjAddr: 0x1DF0, symBinAddr: 0x1000D5834, symSize: 0x28 }
  - { offset: 0x2DB34A, size: 0x8, addend: 0x0, symName: ___sanitizer_cov_trace_pc, symObjAddr: 0x1E18, symBinAddr: 0x1000D585C, symSize: 0x28 }
  - { offset: 0x2DB35B, size: 0x8, addend: 0x0, symName: ___sanitizer_cov_trace_pc, symObjAddr: 0x1E18, symBinAddr: 0x1000D585C, symSize: 0x28 }
  - { offset: 0x2DB3B0, size: 0x8, addend: 0x0, symName: ___sanitizer_cov_trace_pc_guard_init, symObjAddr: 0x1E40, symBinAddr: 0x1000D5884, symSize: 0x28 }
  - { offset: 0x2DB3C1, size: 0x8, addend: 0x0, symName: ___sanitizer_cov_trace_pc_guard_init, symObjAddr: 0x1E40, symBinAddr: 0x1000D5884, symSize: 0x28 }
  - { offset: 0x2DB436, size: 0x8, addend: 0x0, symName: ___sanitizer_cov_8bit_counters_init, symObjAddr: 0x1E68, symBinAddr: 0x1000D58AC, symSize: 0x14 }
  - { offset: 0x2DB447, size: 0x8, addend: 0x0, symName: ___sanitizer_cov_8bit_counters_init, symObjAddr: 0x1E68, symBinAddr: 0x1000D58AC, symSize: 0x14 }
  - { offset: 0x2DB4E0, size: 0x8, addend: 0x0, symName: ___sanitizer_cov_pcs_init, symObjAddr: 0x1E7C, symBinAddr: 0x1000D58C0, symSize: 0x64 }
  - { offset: 0x2DB518, size: 0x8, addend: 0x0, symName: ___sanitizer_cov_pcs_init, symObjAddr: 0x1E7C, symBinAddr: 0x1000D58C0, symSize: 0x64 }
  - { offset: 0x2DB597, size: 0x8, addend: 0x0, symName: ___sanitizer_cov_trace_pc_indir, symObjAddr: 0x1EE0, symBinAddr: 0x1000D5924, symSize: 0x60 }
  - { offset: 0x2DB714, size: 0x8, addend: 0x0, symName: ___sanitizer_cov_trace_cmp8, symObjAddr: 0x1F40, symBinAddr: 0x1000D5984, symSize: 0x88 }
  - { offset: 0x2DB862, size: 0x8, addend: 0x0, symName: ___sanitizer_cov_trace_const_cmp8, symObjAddr: 0x1FC8, symBinAddr: 0x1000D5A0C, symSize: 0x88 }
  - { offset: 0x2DBA56, size: 0x8, addend: 0x0, symName: ___sanitizer_cov_trace_cmp4, symObjAddr: 0x2050, symBinAddr: 0x1000D5A94, symSize: 0x84 }
  - { offset: 0x2DBB8F, size: 0x8, addend: 0x0, symName: ___sanitizer_cov_trace_const_cmp4, symObjAddr: 0x20D4, symBinAddr: 0x1000D5B18, symSize: 0x84 }
  - { offset: 0x2DBD32, size: 0x8, addend: 0x0, symName: ___sanitizer_cov_trace_cmp2, symObjAddr: 0x2158, symBinAddr: 0x1000D5B9C, symSize: 0x70 }
  - { offset: 0x2DBE55, size: 0x8, addend: 0x0, symName: ___sanitizer_cov_trace_const_cmp2, symObjAddr: 0x21C8, symBinAddr: 0x1000D5C0C, symSize: 0x70 }
  - { offset: 0x2DBFE2, size: 0x8, addend: 0x0, symName: ___sanitizer_cov_trace_cmp1, symObjAddr: 0x2238, symBinAddr: 0x1000D5C7C, symSize: 0x70 }
  - { offset: 0x2DC105, size: 0x8, addend: 0x0, symName: ___sanitizer_cov_trace_const_cmp1, symObjAddr: 0x22A8, symBinAddr: 0x1000D5CEC, symSize: 0x70 }
  - { offset: 0x2DC228, size: 0x8, addend: 0x0, symName: ___sanitizer_cov_trace_switch, symObjAddr: 0x2318, symBinAddr: 0x1000D5D5C, symSize: 0x2C4 }
  - { offset: 0x2DC747, size: 0x8, addend: 0x0, symName: ___sanitizer_cov_trace_div4, symObjAddr: 0x25DC, symBinAddr: 0x1000D6020, symSize: 0x80 }
  - { offset: 0x2DC86E, size: 0x8, addend: 0x0, symName: ___sanitizer_cov_trace_div8, symObjAddr: 0x265C, symBinAddr: 0x1000D60A0, symSize: 0x84 }
  - { offset: 0x2DCA1A, size: 0x8, addend: 0x0, symName: ___sanitizer_cov_trace_gep, symObjAddr: 0x26E0, symBinAddr: 0x1000D6124, symSize: 0x84 }
  - { offset: 0x2DCB5C, size: 0x8, addend: 0x0, symName: ___sanitizer_weak_hook_memcmp, symObjAddr: 0x2764, symBinAddr: 0x1000D61A8, symSize: 0x44 }
  - { offset: 0x2DCBD8, size: 0x8, addend: 0x0, symName: ___sanitizer_weak_hook_strncmp, symObjAddr: 0x27A8, symBinAddr: 0x1000D61EC, symSize: 0xA8 }
  - { offset: 0x2DCC9B, size: 0x8, addend: 0x0, symName: ___sanitizer_weak_hook_strcmp, symObjAddr: 0x2850, symBinAddr: 0x1000D6294, symSize: 0x74 }
  - { offset: 0x2DCD84, size: 0x8, addend: 0x0, symName: ___sanitizer_weak_hook_strncasecmp, symObjAddr: 0x28C4, symBinAddr: 0x1000D6308, symSize: 0xA8 }
  - { offset: 0x2DCECF, size: 0x8, addend: 0x0, symName: ___sanitizer_weak_hook_strcasecmp, symObjAddr: 0x296C, symBinAddr: 0x1000D63B0, symSize: 0x74 }
  - { offset: 0x2DCFBD, size: 0x8, addend: 0x0, symName: ___sanitizer_weak_hook_strstr, symObjAddr: 0x29E0, symBinAddr: 0x1000D6424, symSize: 0x94 }
  - { offset: 0x2DD0B9, size: 0x8, addend: 0x0, symName: ___sanitizer_weak_hook_strcasestr, symObjAddr: 0x2A74, symBinAddr: 0x1000D64B8, symSize: 0x94 }
  - { offset: 0x2DD1B5, size: 0x8, addend: 0x0, symName: ___sanitizer_weak_hook_memmem, symObjAddr: 0x2B08, symBinAddr: 0x1000D654C, symSize: 0x88 }
  - { offset: 0x2DD549, size: 0x8, addend: 0x0, symName: __ZN6fuzzer7TracePCC2Ev, symObjAddr: 0x2B90, symBinAddr: 0x1000D65D4, symSize: 0x17C }
  - { offset: 0x2DDD43, size: 0x8, addend: 0x0, symName: __ZNSt3__112__hash_tableINS_17__hash_value_typeImmEENS_22__unordered_map_hasherImS2_NS_4hashImEENS_8equal_toImEELb1EEENS_21__unordered_map_equalImS2_S7_S5_Lb1EEENS_9allocatorIS2_EEE11__do_rehashILb1EEEvm, symObjAddr: 0x30A0, symBinAddr: 0x1000D6AE4, symSize: 0x1CC }
  - { offset: 0x2DE120, size: 0x8, addend: 0x0, symName: __ZNSt3__16vectorImNS_9allocatorImEEE20__throw_length_errorB8nn200100Ev, symObjAddr: 0x326C, symBinAddr: 0x1000D6CB0, symSize: 0x14 }
  - { offset: 0x2DE1D9, size: 0x8, addend: 0x0, symName: __GLOBAL__sub_I_FuzzerTracePC.cpp, symObjAddr: 0x3300, symBinAddr: 0x1000D6D44, symSize: 0x3C }
  - { offset: 0x2E0102, size: 0x8, addend: 0x0, symName: __ZN6fuzzer6Base64ERKNSt3__16vectorIhNS0_9allocatorIhEEEE, symObjAddr: 0xEAC, symBinAddr: 0x1000D7C2C, symSize: 0x23C }
  - { offset: 0x2E05AF, size: 0x8, addend: 0x0, symName: __ZN6fuzzerL14SymbolizeMutexE, symObjAddr: 0x17C0, symBinAddr: 0x10011CEF0, symSize: 0x0 }
  - { offset: 0x2E05BD, size: 0x8, addend: 0x0, symName: __ZN6fuzzer13PrintHexArrayEPKhmPKc, symObjAddr: 0x0, symBinAddr: 0x1000D6D80, symSize: 0x68 }
  - { offset: 0x2E0677, size: 0x8, addend: 0x0, symName: __ZN6fuzzer5PrintERKNSt3__16vectorIhNS0_9allocatorIhEEEEPKc, symObjAddr: 0x68, symBinAddr: 0x1000D6DE8, symSize: 0x68 }
  - { offset: 0x2E074A, size: 0x8, addend: 0x0, symName: __ZN6fuzzer14PrintASCIIByteEh, symObjAddr: 0xD0, symBinAddr: 0x1000D6E50, symSize: 0x88 }
  - { offset: 0x2E07B8, size: 0x8, addend: 0x0, symName: __ZN6fuzzer10PrintASCIIEPKhmPKc, symObjAddr: 0x158, symBinAddr: 0x1000D6ED8, symSize: 0xCC }
  - { offset: 0x2E086F, size: 0x8, addend: 0x0, symName: __ZN6fuzzer10PrintASCIIERKNSt3__16vectorIhNS0_9allocatorIhEEEEPKc, symObjAddr: 0x224, symBinAddr: 0x1000D6FA4, symSize: 0xCC }
  - { offset: 0x2E0952, size: 0x8, addend: 0x0, symName: __ZN6fuzzer7ToASCIIEPhm, symObjAddr: 0x2F0, symBinAddr: 0x1000D7070, symSize: 0x54 }
  - { offset: 0x2E0A50, size: 0x8, addend: 0x0, symName: __ZN6fuzzer7IsASCIIERKNSt3__16vectorIhNS0_9allocatorIhEEEE, symObjAddr: 0x344, symBinAddr: 0x1000D70C4, symSize: 0xA0 }
  - { offset: 0x2E0B6A, size: 0x8, addend: 0x0, symName: __ZN6fuzzer7IsASCIIEPKhm, symObjAddr: 0x3E4, symBinAddr: 0x1000D7164, symSize: 0xA8 }
  - { offset: 0x2E0B90, size: 0x8, addend: 0x0, symName: __ZN6fuzzer7IsASCIIEPKhm, symObjAddr: 0x3E4, symBinAddr: 0x1000D7164, symSize: 0xA8 }
  - { offset: 0x2E0C1D, size: 0x8, addend: 0x0, symName: __ZN6fuzzer23ParseOneDictionaryEntryERKNSt3__112basic_stringIcNS0_11char_traitsIcEENS0_9allocatorIcEEEEPNS0_6vectorIhNS4_IhEEEE, symObjAddr: 0x48C, symBinAddr: 0x1000D720C, symSize: 0x4DC }
  - { offset: 0x2E1B0C, size: 0x8, addend: 0x0, symName: __ZN6fuzzer19ParseDictionaryFileERKNSt3__112basic_stringIcNS0_11char_traitsIcEENS0_9allocatorIcEEEEPNS0_6vectorINS9_IhNS4_IhEEEENS4_ISB_EEEE, symObjAddr: 0x968, symBinAddr: 0x1000D76E8, symSize: 0x40C }
  - { offset: 0x2E1B16, size: 0x8, addend: 0x0, symName: __ZN6fuzzer19ParseDictionaryFileERKNSt3__112basic_stringIcNS0_11char_traitsIcEENS0_9allocatorIcEEEEPNS0_6vectorINS9_IhNS4_IhEEEENS4_ISB_EEEE, symObjAddr: 0x968, symBinAddr: 0x1000D76E8, symSize: 0x40C }
  - { offset: 0x2E2964, size: 0x8, addend: 0x0, symName: __ZNSt3__17getlineB8nn200100IcNS_11char_traitsIcEENS_9allocatorIcEEEERNS_13basic_istreamIT_T0_EES9_RNS_12basic_stringIS6_S7_T1_EES6_, symObjAddr: 0xD74, symBinAddr: 0x1000D7AF4, symSize: 0x138 }
  - { offset: 0x2E296E, size: 0x8, addend: 0x0, symName: __ZN6fuzzer10DescribePCEPKcm, symObjAddr: 0x10E8, symBinAddr: 0x1000D7E68, symSize: 0x18C }
  - { offset: 0x2E2F36, size: 0x8, addend: 0x0, symName: __ZN6fuzzer7PrintPCEPKcS1_m, symObjAddr: 0x1274, symBinAddr: 0x1000D7FF4, symSize: 0xA8 }
  - { offset: 0x2E2F41, size: 0x8, addend: 0x0, symName: __ZN6fuzzer7PrintPCEPKcS1_m, symObjAddr: 0x1274, symBinAddr: 0x1000D7FF4, symSize: 0xA8 }
  - { offset: 0x2E3149, size: 0x8, addend: 0x0, symName: __ZN6fuzzer15PrintStackTraceEv, symObjAddr: 0x131C, symBinAddr: 0x1000D809C, symSize: 0x5C }
  - { offset: 0x2E31E5, size: 0x8, addend: 0x0, symName: __ZN6fuzzer18PrintMemoryProfileEv, symObjAddr: 0x1378, symBinAddr: 0x1000D80F8, symSize: 0x64 }
  - { offset: 0x2E328B, size: 0x8, addend: 0x0, symName: __ZN6fuzzer16NumberOfCpuCoresEv, symObjAddr: 0x13DC, symBinAddr: 0x1000D815C, symSize: 0x30 }
  - { offset: 0x2E32C8, size: 0x8, addend: 0x0, symName: __ZN6fuzzer14SimpleFastHashEPKvmy, symObjAddr: 0x140C, symBinAddr: 0x1000D818C, symSize: 0x20 }
  - { offset: 0x2E3330, size: 0x8, addend: 0x0, symName: __ZN6fuzzer14SimpleFastHashEPKvmy, symObjAddr: 0x140C, symBinAddr: 0x1000D818C, symSize: 0x20 }
  - { offset: 0x2E91E6, size: 0x8, addend: 0x0, symName: __ZNSt3__17getlineB8nn200100IcNS_11char_traitsIcEENS_9allocatorIcEEEERNS_13basic_istreamIT_T0_EES9_RNS_12basic_stringIS6_S7_T1_EES6_, symObjAddr: 0xD74, symBinAddr: 0x1000D7AF4, symSize: 0x138 }
  - { offset: 0x2EA4BC, size: 0x8, addend: 0x0, symName: __ZNSt3__16vectorIhNS_9allocatorIhEEE20__throw_length_errorB8nn200100Ev, symObjAddr: 0x1470, symBinAddr: 0x1000D81AC, symSize: 0x14 }
  - { offset: 0x2EAE68, size: 0x8, addend: 0x0, symName: __ZNSt3__16vectorIhNS_9allocatorIhEEE20__throw_length_errorB8nn200100Ev, symObjAddr: 0x1470, symBinAddr: 0x1000D81AC, symSize: 0x14 }
  - { offset: 0x2EAE80, size: 0x8, addend: 0x0, symName: __ZNSt3__16vectorINS0_IhNS_9allocatorIhEEEENS1_IS3_EEE24__emplace_back_slow_pathIJRKS3_EEEPS3_DpOT_, symObjAddr: 0x1484, symBinAddr: 0x1000D81C0, symSize: 0x138 }
  - { offset: 0x2EB6D7, size: 0x8, addend: 0x0, symName: __ZNSt3__16vectorINS0_IhNS_9allocatorIhEEEENS1_IS3_EEE24__emplace_back_slow_pathIJRKS3_EEEPS3_DpOT_, symObjAddr: 0x1484, symBinAddr: 0x1000D81C0, symSize: 0x138 }
  - { offset: 0x2EBD69, size: 0x8, addend: 0x0, symName: __ZNSt3__16vectorINS0_IhNS_9allocatorIhEEEENS1_IS3_EEE20__throw_length_errorB8nn200100Ev, symObjAddr: 0x15BC, symBinAddr: 0x1000D82F8, symSize: 0x14 }
  - { offset: 0x2EC34D, size: 0x8, addend: 0x0, symName: __ZNSt3__16vectorINS0_IhNS_9allocatorIhEEEENS1_IS3_EEE20__throw_length_errorB8nn200100Ev, symObjAddr: 0x15BC, symBinAddr: 0x1000D82F8, symSize: 0x14 }
  - { offset: 0x2EC377, size: 0x8, addend: 0x0, symName: __GLOBAL__sub_I_FuzzerUtil.cpp, symObjAddr: 0x15D8, symBinAddr: 0x1000D830C, symSize: 0x1C }
  - { offset: 0x2EC38F, size: 0x8, addend: 0x0, symName: __GLOBAL__sub_I_FuzzerUtil.cpp, symObjAddr: 0x15D8, symBinAddr: 0x1000D830C, symSize: 0x1C }
  - { offset: 0x2EE258, size: 0x8, addend: 0x0, symName: __ZN6fuzzerL11SignalMutexE, symObjAddr: 0xBB0, symBinAddr: 0x10011CF30, symSize: 0x0 }
  - { offset: 0x2EE265, size: 0x8, addend: 0x0, symName: __ZN6fuzzer14ExecuteCommandERKNS_7CommandE, symObjAddr: 0x0, symBinAddr: 0x1000D8328, symSize: 0x3CC }
  - { offset: 0x2EE28F, size: 0x8, addend: 0x0, symName: __MergedGlobals, symObjAddr: 0x28688, symBinAddr: 0x10017D660, symSize: 0x0 }
  - { offset: 0x2EE929, size: 0x8, addend: 0x0, symName: __MergedGlobals, symObjAddr: 0x28688, symBinAddr: 0x10017D660, symSize: 0x0 }
  - { offset: 0x2EE943, size: 0x8, addend: 0x0, symName: __MergedGlobals, symObjAddr: 0x28688, symBinAddr: 0x10017D660, symSize: 0x0 }
  - { offset: 0x2EE95F, size: 0x8, addend: 0x0, symName: __MergedGlobals, symObjAddr: 0x28688, symBinAddr: 0x10017D660, symSize: 0x0 }
  - { offset: 0x2EE97B, size: 0x8, addend: 0x0, symName: __MergedGlobals, symObjAddr: 0x28688, symBinAddr: 0x10017D660, symSize: 0x0 }
  - { offset: 0x2EEC54, size: 0x8, addend: 0x0, symName: __ZN6fuzzer13DiscardOutputEi, symObjAddr: 0x7C0, symBinAddr: 0x1000D86F4, symSize: 0x54 }
  - { offset: 0x2EECCC, size: 0x8, addend: 0x0, symName: __ZN6fuzzer13SetThreadNameERNSt3__16threadERKNS0_12basic_stringIcNS0_11char_traitsIcEENS0_9allocatorIcEEEE, symObjAddr: 0x814, symBinAddr: 0x1000D8748, symSize: 0x4 }
  - { offset: 0x2F43F3, size: 0x8, addend: 0x0, symName: __GLOBAL__sub_I_FuzzerUtilDarwin.cpp, symObjAddr: 0xB90, symBinAddr: 0x1000D874C, symSize: 0x1C }
  - { offset: 0x2F6002, size: 0x8, addend: 0x0, symName: __ZN6fuzzer13DiscardOutputEi, symObjAddr: 0x7C0, symBinAddr: 0x1000D86F4, symSize: 0x54 }
  - { offset: 0x2F6D60, size: 0x8, addend: 0x0, symName: __GLOBAL__sub_I_FuzzerUtilDarwin.cpp, symObjAddr: 0xB90, symBinAddr: 0x1000D874C, symSize: 0x1C }
  - { offset: 0x2F6D78, size: 0x8, addend: 0x0, symName: __GLOBAL__sub_I_FuzzerUtilDarwin.cpp, symObjAddr: 0xB90, symBinAddr: 0x1000D874C, symSize: 0x1C }
  - { offset: 0x2F8A7A, size: 0x8, addend: 0x0, symName: __ZN6fuzzer14ExecuteCommandERKNS_7CommandEPNSt3__112basic_stringIcNS3_11char_traitsIcEENS3_9allocatorIcEEEE, symObjAddr: 0x0, symBinAddr: 0x1000D8768, symSize: 0xE0 }
  - { offset: 0x2F8A9F, size: 0x8, addend: 0x0, symName: __ZN6fuzzer8PageSizeEv, symObjAddr: 0x96C, symBinAddr: 0x1000D8CE0, symSize: 0x60 }
  - { offset: 0x2F8AC9, size: 0x8, addend: 0x0, symName: __MergedGlobals, symObjAddr: 0x28390, symBinAddr: 0x10017D6A0, symSize: 0x0 }
  - { offset: 0x2F8AF3, size: 0x8, addend: 0x0, symName: __ZN6fuzzerL21upstream_segv_handlerE, symObjAddr: 0x28388, symBinAddr: 0x10017D698, symSize: 0x0 }
  - { offset: 0x2F8B00, size: 0x8, addend: 0x0, symName: __ZN6fuzzer14ExecuteCommandERKNS_7CommandEPNSt3__112basic_stringIcNS3_11char_traitsIcEENS3_9allocatorIcEEEE, symObjAddr: 0x0, symBinAddr: 0x1000D8768, symSize: 0xE0 }
  - { offset: 0x2F901D, size: 0x8, addend: 0x0, symName: __ZN6fuzzer8SetTimerEi, symObjAddr: 0x4D4, symBinAddr: 0x1000D8848, symSize: 0x7C }
  - { offset: 0x2F9092, size: 0x8, addend: 0x0, symName: __ZN6fuzzerL12SetSigactionEiPFviP9__siginfoPvE, symObjAddr: 0x550, symBinAddr: 0x1000D88C4, symSize: 0xB0 }
  - { offset: 0x2F90A3, size: 0x8, addend: 0x0, symName: __ZN6fuzzerL12SetSigactionEiPFviP9__siginfoPvE, symObjAddr: 0x550, symBinAddr: 0x1000D88C4, symSize: 0xB0 }
  - { offset: 0x2F9155, size: 0x8, addend: 0x0, symName: __ZN6fuzzerL12AlarmHandlerEiP9__siginfoPv, symObjAddr: 0x600, symBinAddr: 0x1000D8974, symSize: 0x4 }
  - { offset: 0x2F9179, size: 0x8, addend: 0x0, symName: __ZN6fuzzerL12AlarmHandlerEiP9__siginfoPv, symObjAddr: 0x600, symBinAddr: 0x1000D8974, symSize: 0x4 }
  - { offset: 0x2F91CF, size: 0x8, addend: 0x0, symName: __ZN6fuzzer16SetSignalHandlerERKNS_14FuzzingOptionsE, symObjAddr: 0x604, symBinAddr: 0x1000D8978, symSize: 0x238 }
  - { offset: 0x2F9324, size: 0x8, addend: 0x0, symName: __ZN6fuzzerL16InterruptHandlerEiP9__siginfoPv, symObjAddr: 0x83C, symBinAddr: 0x1000D8BB0, symSize: 0x4 }
  - { offset: 0x2F9335, size: 0x8, addend: 0x0, symName: __ZN6fuzzerL16InterruptHandlerEiP9__siginfoPv, symObjAddr: 0x83C, symBinAddr: 0x1000D8BB0, symSize: 0x4 }
  - { offset: 0x2F9368, size: 0x8, addend: 0x0, symName: __ZN6fuzzerL11SegvHandlerEiP9__siginfoPv, symObjAddr: 0x840, symBinAddr: 0x1000D8BB4, symSize: 0x14 }
  - { offset: 0x2F93B9, size: 0x8, addend: 0x0, symName: __ZN6fuzzerL12CrashHandlerEiP9__siginfoPv, symObjAddr: 0x854, symBinAddr: 0x1000D8BC8, symSize: 0x4 }
  - { offset: 0x2F93EC, size: 0x8, addend: 0x0, symName: __ZN6fuzzerL21FileSizeExceedHandlerEiP9__siginfoPv, symObjAddr: 0x858, symBinAddr: 0x1000D8BCC, symSize: 0x4 }
  - { offset: 0x2F941F, size: 0x8, addend: 0x0, symName: __ZN6fuzzerL19GracefulExitHandlerEiP9__siginfoPv, symObjAddr: 0x85C, symBinAddr: 0x1000D8BD0, symSize: 0x4 }
  - { offset: 0x2F9452, size: 0x8, addend: 0x0, symName: __ZN6fuzzer12SleepSecondsEi, symObjAddr: 0x860, symBinAddr: 0x1000D8BD4, symSize: 0x4 }
  - { offset: 0x2F947E, size: 0x8, addend: 0x0, symName: __ZN6fuzzer12SleepSecondsEi, symObjAddr: 0x860, symBinAddr: 0x1000D8BD4, symSize: 0x4 }
  - { offset: 0x2F9490, size: 0x8, addend: 0x0, symName: __ZN6fuzzer6GetPidEv, symObjAddr: 0x864, symBinAddr: 0x1000D8BD8, symSize: 0x18 }
  - { offset: 0x2F94BC, size: 0x8, addend: 0x0, symName: __ZN6fuzzer12GetPeakRSSMbEv, symObjAddr: 0x87C, symBinAddr: 0x1000D8BF0, symSize: 0x4C }
  - { offset: 0x2F9502, size: 0x8, addend: 0x0, symName: __ZN6fuzzer15OpenProcessPipeEPKcS1_, symObjAddr: 0x8C8, symBinAddr: 0x1000D8C3C, symSize: 0x4 }
  - { offset: 0x2F9540, size: 0x8, addend: 0x0, symName: __ZN6fuzzer15OpenProcessPipeEPKcS1_, symObjAddr: 0x8C8, symBinAddr: 0x1000D8C3C, symSize: 0x4 }
  - { offset: 0x2F955A, size: 0x8, addend: 0x0, symName: __ZN6fuzzer16CloseProcessPipeEP7__sFILE, symObjAddr: 0x8CC, symBinAddr: 0x1000D8C40, symSize: 0x4 }
  - { offset: 0x2F958A, size: 0x8, addend: 0x0, symName: __ZN6fuzzer16CloseProcessPipeEP7__sFILE, symObjAddr: 0x8CC, symBinAddr: 0x1000D8C40, symSize: 0x4 }
  - { offset: 0x2F959D, size: 0x8, addend: 0x0, symName: __ZN6fuzzer12SearchMemoryEPKvmS1_m, symObjAddr: 0x8D0, symBinAddr: 0x1000D8C44, symSize: 0x4 }
  - { offset: 0x2F95F7, size: 0x8, addend: 0x0, symName: __ZN6fuzzer12SearchMemoryEPKvmS1_m, symObjAddr: 0x8D0, symBinAddr: 0x1000D8C44, symSize: 0x4 }
  - { offset: 0x2F961F, size: 0x8, addend: 0x0, symName: __ZN6fuzzer14DisassembleCmdERKNSt3__112basic_stringIcNS0_11char_traitsIcEENS0_9allocatorIcEEEE, symObjAddr: 0x8D4, symBinAddr: 0x1000D8C48, symSize: 0x10 }
  - { offset: 0x2F9669, size: 0x8, addend: 0x0, symName: __ZN6fuzzer14SearchRegexCmdERKNSt3__112basic_stringIcNS0_11char_traitsIcEENS0_9allocatorIcEEEE, symObjAddr: 0x8E4, symBinAddr: 0x1000D8C58, symSize: 0x88 }
  - { offset: 0x3009E1, size: 0x8, addend: 0x0, symName: __ZN6fuzzer8SetTimerEi, symObjAddr: 0x4D4, symBinAddr: 0x1000D8848, symSize: 0x7C }
  - { offset: 0x30350F, size: 0x8, addend: 0x0, symName: _main, symObjAddr: 0x0, symBinAddr: 0x1000D8D40, symSize: 0x34 }
  - { offset: 0x30351D, size: 0x8, addend: 0x0, symName: _main, symObjAddr: 0x0, symBinAddr: 0x1000D8D40, symSize: 0x34 }
...
